{
   <insert_a_suppression_name_here>
   Memcheck:Cond
   fun:_ZN5ArenaC2Ev
   fun:_ZN6ThreadC2Ev
   fun:_ZN10JavaThreadC1Eb
   fun:_ZN7Threads9create_vmEP14JavaVMInitArgsPb
   fun:JNI_CreateJavaVM
   fun:JavaMain
   fun:start_thread
   fun:clone
}
{
   <insert_a_suppression_name_here>
   Memcheck:Cond
   fun:_ZN5ArenaC2Ev
   fun:_ZN6ThreadC2Ev
   fun:_ZN11NamedThreadC2Ev
   fun:_ZN8WorkGang15allocate_workerEj
   fun:_ZN8WorkGang18initialize_workersEv
   fun:_ZN16GenCollectedHeapC1EP18GenCollectorPolicy
   fun:_ZN8Universe15initialize_heapEv
   fun:_Z13universe_initv
   fun:_Z12init_globalsv
   fun:_ZN7Threads9create_vmEP14JavaVMInitArgsPb
   fun:JNI_CreateJavaVM
   fun:JavaMain
}
{
   <insert_a_suppression_name_here>
   Memcheck:Cond
   fun:_ZN5ArenaC2Ev
   fun:_ZN6ThreadC2Ev
   fun:_ZN11NamedThreadC2Ev
   fun:_ZN18ConcurrentGCThreadC2Ev
   fun:_ZN25ConcurrentMarkSweepThread5startEP12CMSCollector
   fun:_ZN12CMSCollectorC1EP29ConcurrentMarkSweepGenerationS1_P11CardTableRSP25ConcurrentMarkSweepPolicy
   fun:_ZN16GenCollectedHeap20create_cms_collectorEv
   fun:_ZN16GenCollectedHeap10initializeEv
   fun:_ZN8Universe15initialize_heapEv
   fun:_Z13universe_initv
   fun:_Z12init_globalsv
   fun:_ZN7Threads9create_vmEP14JavaVMInitArgsPb
}
{
   <insert_a_suppression_name_here>
   Memcheck:Cond
   fun:_ZN5ArenaC1Em
   fun:_ZN11SymbolTable18initialize_symbolsEi
   fun:_Z13universe_initv
   fun:_Z12init_globalsv
   fun:_ZN7Threads9create_vmEP14JavaVMInitArgsPb
   fun:JNI_CreateJavaVM
   fun:JavaMain
   fun:start_thread
   fun:clone
}
{
   <insert_a_suppression_name_here>
   Memcheck:Cond
   fun:_ZN5ArenaC1Ev
   fun:_ZN10CodeBuffer21create_patch_overflowEv
   fun:_ZN5Label12add_patch_atEP10CodeBufferi
   fun:_ZN9Assembler3jccENS_9ConditionER5Labelb
   fun:_ZN25InterpreterMacroAssembler11lock_objectEP12RegisterImpl
   fun:_ZN20InterpreterGenerator11lock_methodEv
   fun:_ZN20InterpreterGenerator21generate_normal_entryEb
   fun:_ZN28AbstractInterpreterGenerator21generate_method_entryEN19AbstractInterpreter10MethodKindE
   fun:_ZN28TemplateInterpreterGenerator12generate_allEv
   fun:_ZN19TemplateInterpreter10initializeEv
   fun:_Z16interpreter_initv
   fun:_Z12init_globalsv
}
{
   <insert_a_suppression_name_here>
   Memcheck:Cond
   fun:_ZN5ArenaC1Ev
   fun:_ZN10CodeBuffer21create_patch_overflowEv
   fun:_ZN5Label12add_patch_atEP10CodeBufferi
   fun:_ZN9Assembler3jmpER5Labelb
   fun:_ZN25InterpreterMacroAssembler30record_klass_in_profile_helperEP12RegisterImplS1_S1_iR5Labelb
   fun:_ZN25InterpreterMacroAssembler17gen_subtype_checkEP12RegisterImplR5Label
   fun:_ZN13TemplateTable7aastoreEv
   fun:_ZN8Template8generateEP25InterpreterMacroAssembler
   fun:_ZN28TemplateInterpreterGenerator21generate_and_dispatchEP8Template8TosState
   fun:_ZN28TemplateInterpreterGenerator21set_vtos_entry_pointsEP8TemplateRPhS3_S3_S3_S3_S3_S3_S3_S3_
   fun:_ZN28TemplateInterpreterGenerator16set_entry_pointsEN9Bytecodes4CodeE
   fun:_ZN28TemplateInterpreterGenerator12generate_allEv
}
{
   <insert_a_suppression_name_here>
   Memcheck:Cond
   fun:_ZN5ArenaC2Ev
   fun:_ZN6ThreadC2Ev
   fun:_ZN11NamedThreadC2Ev
   fun:_ZN8VMThread6createEv
   fun:_ZN7Threads9create_vmEP14JavaVMInitArgsPb
   fun:JNI_CreateJavaVM
   fun:JavaMain
   fun:start_thread
   fun:clone
}
{
   <insert_a_suppression_name_here>
   Memcheck:Addr4
   obj:*
   obj:*
   fun:_ZN9JavaCalls11call_helperEP9JavaValueP12methodHandleP17JavaCallArgumentsP6Thread
   fun:_ZN9JavaCalls4callEP9JavaValue12methodHandleP17JavaCallArgumentsP6Thread
   fun:_ZN13instanceKlass22call_class_initializerEP6Thread
   fun:_ZN13instanceKlass15initialize_implE19instanceKlassHandleP6Thread
   fun:_ZN13instanceKlass10initializeEP6Thread
   fun:_ZN13instanceKlass15initialize_implE19instanceKlassHandleP6Thread
   fun:_ZN13instanceKlass10initializeEP6Thread
   fun:_ZN7Threads9create_vmEP14JavaVMInitArgsPb
   fun:JNI_CreateJavaVM
   fun:JavaMain
}
{
   <insert_a_suppression_name_here>
   Memcheck:Addr4
   obj:*
   obj:*
   fun:_ZN9JavaCalls11call_helperEP9JavaValueP12methodHandleP17JavaCallArgumentsP6Thread
   fun:_ZN9JavaCalls4callEP9JavaValue12methodHandleP17JavaCallArgumentsP6Thread
   fun:_ZN13instanceKlass22call_class_initializerEP6Thread
   fun:_ZN13instanceKlass15initialize_implE19instanceKlassHandleP6Thread
   fun:_ZN13instanceKlass10initializeEP6Thread
   fun:_ZN7Threads9create_vmEP14JavaVMInitArgsPb
   fun:JNI_CreateJavaVM
   fun:JavaMain
   fun:start_thread
   fun:clone
}
{
   <insert_a_suppression_name_here>
   Memcheck:Addr4
   obj:*
   obj:*
   obj:*
   fun:_ZN9JavaCalls11call_helperEP9JavaValueP12methodHandleP17JavaCallArgumentsP6Thread
   fun:_ZN9JavaCalls4callEP9JavaValue12methodHandleP17JavaCallArgumentsP6Thread
   fun:_ZN13instanceKlass22call_class_initializerEP6Thread
   fun:_ZN13instanceKlass15initialize_implE19instanceKlassHandleP6Thread
   fun:_ZN13instanceKlass10initializeEP6Thread
   fun:_ZN7Threads9create_vmEP14JavaVMInitArgsPb
   fun:JNI_CreateJavaVM
   fun:JavaMain
   fun:start_thread
}
{
   <insert_a_suppression_name_here>
   Memcheck:Addr4
   obj:*
   obj:*
   obj:*
   obj:*
   fun:_ZN9JavaCalls11call_helperEP9JavaValueP12methodHandleP17JavaCallArgumentsP6Thread
   fun:_ZN9JavaCalls4callEP9JavaValue12methodHandleP17JavaCallArgumentsP6Thread
   fun:_ZN13instanceKlass22call_class_initializerEP6Thread
   fun:_ZN13instanceKlass15initialize_implE19instanceKlassHandleP6Thread
   fun:_ZN13instanceKlass10initializeEP6Thread
   fun:_ZN7Threads9create_vmEP14JavaVMInitArgsPb
   fun:JNI_CreateJavaVM
   fun:JavaMain
}
{
   <insert_a_suppression_name_here>
   Memcheck:Addr4
   obj:*
   obj:*
   obj:*
   obj:*
   obj:*
   fun:_ZN9JavaCalls11call_helperEP9JavaValueP12methodHandleP17JavaCallArgumentsP6Thread
   fun:_ZN9JavaCalls4callEP9JavaValue12methodHandleP17JavaCallArgumentsP6Thread
   fun:_ZN13instanceKlass22call_class_initializerEP6Thread
   fun:_ZN13instanceKlass15initialize_implE19instanceKlassHandleP6Thread
   fun:_ZN13instanceKlass10initializeEP6Thread
   fun:_ZN7Threads9create_vmEP14JavaVMInitArgsPb
   fun:JNI_CreateJavaVM
}
{
   <insert_a_suppression_name_here>
   Memcheck:Addr4
   obj:*
   obj:*
   obj:*
   fun:_ZN9JavaCalls11call_helperEP9JavaValueP12methodHandleP17JavaCallArgumentsP6Thread
   fun:_ZN9JavaCalls4callEP9JavaValue12methodHandleP17JavaCallArgumentsP6Thread
   fun:_ZN9JavaCalls12call_specialEP9JavaValue6Handle11KlassHandleP6SymbolS5_S2_S2_P6Thread
   fun:_ZN7Threads9create_vmEP14JavaVMInitArgsPb
   fun:JNI_CreateJavaVM
   fun:JavaMain
   fun:start_thread
   fun:clone
}
{
   <insert_a_suppression_name_here>
   Memcheck:Addr4
   obj:*
   obj:*
   obj:*
   obj:*
   fun:_ZN9JavaCalls11call_helperEP9JavaValueP12methodHandleP17JavaCallArgumentsP6Thread
   fun:_ZN9JavaCalls4callEP9JavaValue12methodHandleP17JavaCallArgumentsP6Thread
   fun:_ZN9JavaCalls12call_specialEP9JavaValue6Handle11KlassHandleP6SymbolS5_S2_S2_P6Thread
   fun:_ZN7Threads9create_vmEP14JavaVMInitArgsPb
   fun:JNI_CreateJavaVM
   fun:JavaMain
   fun:start_thread
   fun:clone
}
{
   <insert_a_suppression_name_here>
   Memcheck:Addr4
   obj:*
   obj:*
   obj:*
   obj:*
   obj:*
   fun:_ZN9JavaCalls11call_helperEP9JavaValueP12methodHandleP17JavaCallArgumentsP6Thread
   fun:_ZN9JavaCalls4callEP9JavaValue12methodHandleP17JavaCallArgumentsP6Thread
   fun:_ZN9JavaCalls12call_specialEP9JavaValue6Handle11KlassHandleP6SymbolS5_S2_S2_P6Thread
   fun:_ZN7Threads9create_vmEP14JavaVMInitArgsPb
   fun:JNI_CreateJavaVM
   fun:JavaMain
   fun:start_thread
}
{
   <insert_a_suppression_name_here>
   Memcheck:Addr4
   obj:*
   obj:*
   obj:*
   obj:*
   obj:*
   obj:*
   fun:_ZN9JavaCalls11call_helperEP9JavaValueP12methodHandleP17JavaCallArgumentsP6Thread
   fun:_ZN9JavaCalls4callEP9JavaValue12methodHandleP17JavaCallArgumentsP6Thread
   fun:_ZN13instanceKlass22call_class_initializerEP6Thread
   fun:_ZN13instanceKlass15initialize_implE19instanceKlassHandleP6Thread
   fun:_ZN13instanceKlass10initializeEP6Thread
   fun:_ZN7Threads9create_vmEP14JavaVMInitArgsPb
}
{
   <insert_a_suppression_name_here>
   Memcheck:Addr4
   obj:*
   obj:*
   obj:*
   obj:*
   obj:*
   obj:*
   fun:_ZN9JavaCalls11call_helperEP9JavaValueP12methodHandleP17JavaCallArgumentsP6Thread
   fun:_ZN9JavaCalls4callEP9JavaValue12methodHandleP17JavaCallArgumentsP6Thread
   fun:_ZN9JavaCalls12call_specialEP9JavaValue6Handle11KlassHandleP6SymbolS5_S2_S2_P6Thread
   fun:_ZN7Threads9create_vmEP14JavaVMInitArgsPb
   fun:JNI_CreateJavaVM
   fun:JavaMain
}
{
   <insert_a_suppression_name_here>
   Memcheck:Addr4
   obj:*
   obj:*
   obj:*
   fun:_ZN9JavaCalls11call_helperEP9JavaValueP12methodHandleP17JavaCallArgumentsP6Thread
   fun:_ZN9JavaCalls4callEP9JavaValue12methodHandleP17JavaCallArgumentsP6Thread
   fun:_ZN9JavaCalls11call_staticEP9JavaValue11KlassHandleP6SymbolS4_6HandleS5_P6Thread
   fun:_ZN12NativeLookup12lookup_styleE12methodHandlePcPKcibRbP6Thread
   fun:_ZN12NativeLookup12lookup_entryE12methodHandleRbP6Thread
   fun:_ZN12NativeLookup11lookup_baseE12methodHandleRbP6Thread
   fun:_ZN12NativeLookup6lookupE12methodHandleRbP6Thread
   fun:_ZN18InterpreterRuntime19prepare_native_callEP10JavaThreadP13methodOopDesc
   obj:*
}
{
   <insert_a_suppression_name_here>
   Memcheck:Addr4
   obj:*
   obj:*
   obj:*
   obj:*
   fun:_ZN9JavaCalls11call_helperEP9JavaValueP12methodHandleP17JavaCallArgumentsP6Thread
   fun:_ZN9JavaCalls4callEP9JavaValue12methodHandleP17JavaCallArgumentsP6Thread
   fun:JVM_DoPrivileged
   obj:*
   obj:*
   obj:*
   fun:_ZN9JavaCalls11call_helperEP9JavaValueP12methodHandleP17JavaCallArgumentsP6Thread
   fun:_ZN9JavaCalls4callEP9JavaValue12methodHandleP17JavaCallArgumentsP6Thread
}
{
   <insert_a_suppression_name_here>
   Memcheck:Addr4
   obj:*
   obj:*
   obj:*
   obj:*
   obj:*
   fun:_ZN9JavaCalls11call_helperEP9JavaValueP12methodHandleP17JavaCallArgumentsP6Thread
   fun:_ZN9JavaCalls4callEP9JavaValue12methodHandleP17JavaCallArgumentsP6Thread
   fun:JVM_DoPrivileged
   obj:*
   obj:*
   obj:*
   fun:_ZN9JavaCalls11call_helperEP9JavaValueP12methodHandleP17JavaCallArgumentsP6Thread
}
{
   <insert_a_suppression_name_here>
   Memcheck:Addr4
   obj:*
   obj:*
   obj:*
   fun:_ZN9JavaCalls11call_helperEP9JavaValueP12methodHandleP17JavaCallArgumentsP6Thread
   fun:_ZN9JavaCalls4callEP9JavaValue12methodHandleP17JavaCallArgumentsP6Thread
   fun:_ZN13instanceKlass22call_class_initializerEP6Thread
   fun:_ZN13instanceKlass15initialize_implE19instanceKlassHandleP6Thread
   fun:_ZN13instanceKlass10initializeEP6Thread
   fun:_ZN13instanceKlass15initialize_implE19instanceKlassHandleP6Thread
   fun:_ZN13instanceKlass10initializeEP6Thread
   fun:_ZN13instanceKlass15initialize_implE19instanceKlassHandleP6Thread
   fun:_ZN13instanceKlass10initializeEP6Thread
}
{
   <insert_a_suppression_name_here>
   Memcheck:Addr4
   obj:*
   obj:*
   obj:*
   obj:*
   fun:_ZN9JavaCalls11call_helperEP9JavaValueP12methodHandleP17JavaCallArgumentsP6Thread
   fun:_ZN9JavaCalls4callEP9JavaValue12methodHandleP17JavaCallArgumentsP6Thread
   fun:_ZN13instanceKlass22call_class_initializerEP6Thread
   fun:_ZN13instanceKlass15initialize_implE19instanceKlassHandleP6Thread
   fun:_ZN13instanceKlass10initializeEP6Thread
   fun:_ZN13instanceKlass15initialize_implE19instanceKlassHandleP6Thread
   fun:_ZN13instanceKlass10initializeEP6Thread
   fun:_ZN13instanceKlass15initialize_implE19instanceKlassHandleP6Thread
}
{
   <insert_a_suppression_name_here>
   Memcheck:Cond
   fun:_ZN5ArenaC2Ev
   fun:_ZN6ThreadC2Ev
   fun:_ZN10JavaThreadC1EPFvPS_P6ThreadEm
   fun:JVM_StartThread
   obj:*
   obj:*
   obj:*
   obj:*
   fun:_ZN9JavaCalls11call_helperEP9JavaValueP12methodHandleP17JavaCallArgumentsP6Thread
   fun:_ZN9JavaCalls4callEP9JavaValue12methodHandleP17JavaCallArgumentsP6Thread
   fun:_ZN13instanceKlass22call_class_initializerEP6Thread
   fun:_ZN13instanceKlass15initialize_implE19instanceKlassHandleP6Thread
}
{
   <insert_a_suppression_name_here>
   Memcheck:Addr4
   obj:*
   obj:*
   obj:*
   obj:*
   obj:*
   obj:*
   obj:*
   obj:*
   fun:_ZN9JavaCalls11call_helperEP9JavaValueP12methodHandleP17JavaCallArgumentsP6Thread
   fun:_ZN9JavaCalls4callEP9JavaValue12methodHandleP17JavaCallArgumentsP6Thread
   fun:_ZN13instanceKlass22call_class_initializerEP6Thread
   fun:_ZN13instanceKlass15initialize_implE19instanceKlassHandleP6Thread
}
{
   <insert_a_suppression_name_here>
   Memcheck:Addr4
   obj:*
   obj:*
   obj:*
   obj:*
   obj:*
   obj:*
   obj:*
   fun:_ZN9JavaCalls11call_helperEP9JavaValueP12methodHandleP17JavaCallArgumentsP6Thread
   fun:_ZN9JavaCalls4callEP9JavaValue12methodHandleP17JavaCallArgumentsP6Thread
   fun:_ZN9JavaCalls11call_staticEP9JavaValue11KlassHandleP6SymbolS4_P6Thread
   fun:_ZN7Threads9create_vmEP14JavaVMInitArgsPb
   fun:JNI_CreateJavaVM
}
{
   <insert_a_suppression_name_here>
   Memcheck:Addr4
   obj:*
   obj:*
   obj:*
   fun:_ZN9JavaCalls11call_helperEP9JavaValueP12methodHandleP17JavaCallArgumentsP6Thread
   fun:_ZN9JavaCalls4callEP9JavaValue12methodHandleP17JavaCallArgumentsP6Thread
   fun:_ZN13instanceKlass22call_class_initializerEP6Thread
   fun:_ZN13instanceKlass15initialize_implE19instanceKlassHandleP6Thread
   fun:_ZN13instanceKlass10initializeEP6Thread
   fun:_ZN12LinkResolver19resolve_static_callER8CallInfoR11KlassHandleP6SymbolS5_S2_bbP6Thread
   fun:_ZN12LinkResolver20resolve_invokestaticER8CallInfo18constantPoolHandleiP6Thread
   fun:_ZN18InterpreterRuntime14resolve_invokeEP10JavaThreadN9Bytecodes4CodeE
   obj:*
}
{
   <insert_a_suppression_name_here>
   Memcheck:Addr4
   obj:*
   obj:*
   fun:_ZN9JavaCalls11call_helperEP9JavaValueP12methodHandleP17JavaCallArgumentsP6Thread
   fun:_ZN9JavaCalls4callEP9JavaValue12methodHandleP17JavaCallArgumentsP6Thread
   fun:_ZL20jni_invoke_nonstaticP7JNIEnv_P9JavaValueP8_jobject11JNICallTypeP10_jmethodIDP18JNI_ArgumentPusherP6Thread
   fun:jni_CallObjectMethod
   fun:Java_java_lang_System_initProperties
   obj:*
   obj:*
   obj:*
   fun:_ZN9JavaCalls11call_helperEP9JavaValueP12methodHandleP17JavaCallArgumentsP6Thread
   fun:_ZN9JavaCalls4callEP9JavaValue12methodHandleP17JavaCallArgumentsP6Thread
}
{
   <insert_a_suppression_name_here>
   Memcheck:Addr4
   obj:*
   obj:*
   obj:*
   obj:*
   fun:_ZN9JavaCalls11call_helperEP9JavaValueP12methodHandleP17JavaCallArgumentsP6Thread
   fun:_ZN9JavaCalls4callEP9JavaValue12methodHandleP17JavaCallArgumentsP6Thread
   fun:_ZL17jni_invoke_staticP7JNIEnv_P9JavaValueP8_jobject11JNICallTypeP10_jmethodIDP18JNI_ArgumentPusherP6Thread
   fun:jni_CallStaticObjectMethodV
   fun:JNU_CallStaticMethodByName
   fun:initializeEncoding
   fun:JNU_NewStringPlatform
   fun:Java_java_lang_System_initProperties
}
{
   <insert_a_suppression_name_here>
   Memcheck:Addr4
   obj:*
   obj:*
   obj:*
   obj:*
   obj:*
   fun:_ZN9JavaCalls11call_helperEP9JavaValueP12methodHandleP17JavaCallArgumentsP6Thread
   fun:_ZN9JavaCalls4callEP9JavaValue12methodHandleP17JavaCallArgumentsP6Thread
   fun:_ZN13instanceKlass22call_class_initializerEP6Thread
   fun:_ZN13instanceKlass15initialize_implE19instanceKlassHandleP6Thread
   fun:_ZN13instanceKlass10initializeEP6Thread
   fun:_ZN12LinkResolver19resolve_static_callER8CallInfoR11KlassHandleP6SymbolS5_S2_bbP6Thread
   fun:_ZN12LinkResolver20resolve_invokestaticER8CallInfo18constantPoolHandleiP6Thread
}
{
   <insert_a_suppression_name_here>
   Memcheck:Addr4
   obj:*
   obj:*
   obj:*
   obj:*
   obj:*
   obj:*
   fun:_ZN9JavaCalls11call_helperEP9JavaValueP12methodHandleP17JavaCallArgumentsP6Thread
   fun:_ZN9JavaCalls4callEP9JavaValue12methodHandleP17JavaCallArgumentsP6Thread
   fun:_ZN13instanceKlass22call_class_initializerEP6Thread
   fun:_ZN13instanceKlass15initialize_implE19instanceKlassHandleP6Thread
   fun:_ZN13instanceKlass10initializeEP6Thread
   fun:_ZN12LinkResolver19resolve_static_callER8CallInfoR11KlassHandleP6SymbolS5_S2_bbP6Thread
}
{
   <insert_a_suppression_name_here>
   Memcheck:Addr4
   obj:*
   obj:*
   obj:*
   obj:*
   obj:*
   obj:*
   obj:*
   fun:_ZN9JavaCalls11call_helperEP9JavaValueP12methodHandleP17JavaCallArgumentsP6Thread
   fun:_ZN9JavaCalls4callEP9JavaValue12methodHandleP17JavaCallArgumentsP6Thread
   fun:_ZN13instanceKlass22call_class_initializerEP6Thread
   fun:_ZN13instanceKlass15initialize_implE19instanceKlassHandleP6Thread
   fun:_ZN13instanceKlass10initializeEP6Thread
}
{
   <insert_a_suppression_name_here>
   Memcheck:Addr4
   obj:*
   obj:*
   obj:*
   fun:_ZN9JavaCalls11call_helperEP9JavaValueP12methodHandleP17JavaCallArgumentsP6Thread
   fun:_ZN9JavaCalls4callEP9JavaValue12methodHandleP17JavaCallArgumentsP6Thread
   fun:_ZN13instanceKlass22call_class_initializerEP6Thread
   fun:_ZN13instanceKlass15initialize_implE19instanceKlassHandleP6Thread
   fun:_ZN13instanceKlass10initializeEP6Thread
   fun:_Z28find_class_from_class_loaderP7JNIEnv_P6Symbolh6HandleS3_hP6Thread
   fun:jni_FindClass
   fun:JNU_CallStaticMethodByName
   fun:JNU_NewStringPlatform
}
{
   <insert_a_suppression_name_here>
   Memcheck:Addr4
   obj:*
   obj:*
   obj:*
   obj:*
   fun:_ZN9JavaCalls11call_helperEP9JavaValueP12methodHandleP17JavaCallArgumentsP6Thread
   fun:_ZN9JavaCalls4callEP9JavaValue12methodHandleP17JavaCallArgumentsP6Thread
   fun:_ZN13instanceKlass22call_class_initializerEP6Thread
   fun:_ZN13instanceKlass15initialize_implE19instanceKlassHandleP6Thread
   fun:_ZN13instanceKlass10initializeEP6Thread
   fun:_Z28find_class_from_class_loaderP7JNIEnv_P6Symbolh6HandleS3_hP6Thread
   fun:jni_FindClass
   fun:JNU_CallStaticMethodByName
}
{
   <insert_a_suppression_name_here>
   Memcheck:Addr4
   obj:*
   obj:*
   obj:*
   obj:*
   obj:*
   obj:*
   fun:_ZN9JavaCalls11call_helperEP9JavaValueP12methodHandleP17JavaCallArgumentsP6Thread
   fun:_ZN9JavaCalls4callEP9JavaValue12methodHandleP17JavaCallArgumentsP6Thread
   fun:_ZN13instanceKlass22call_class_initializerEP6Thread
   fun:_ZN13instanceKlass15initialize_implE19instanceKlassHandleP6Thread
   fun:_ZN13instanceKlass10initializeEP6Thread
   fun:_Z28find_class_from_class_loaderP7JNIEnv_P6Symbolh6HandleS3_hP6Thread
}
{
   <insert_a_suppression_name_here>
   Memcheck:Addr4
   obj:*
   obj:*
   fun:_ZN9JavaCalls11call_helperEP9JavaValueP12methodHandleP17JavaCallArgumentsP6Thread
   fun:_ZN9JavaCalls4callEP9JavaValue12methodHandleP17JavaCallArgumentsP6Thread
   fun:_ZL17jni_invoke_staticP7JNIEnv_P9JavaValueP8_jobject11JNICallTypeP10_jmethodIDP18JNI_ArgumentPusherP6Thread
   fun:jni_CallStaticBooleanMethodV
   fun:JNU_CallStaticMethodByName
   fun:JNU_NewStringPlatform
   fun:Java_java_lang_System_initProperties
   obj:*
   obj:*
   obj:*
}
{
   <insert_a_suppression_name_here>
   Memcheck:Addr4
   obj:*
   obj:*
   obj:*
   fun:_ZN9JavaCalls11call_helperEP9JavaValueP12methodHandleP17JavaCallArgumentsP6Thread
   fun:_ZN9JavaCalls4callEP9JavaValue12methodHandleP17JavaCallArgumentsP6Thread
   fun:_ZL17jni_invoke_staticP7JNIEnv_P9JavaValueP8_jobject11JNICallTypeP10_jmethodIDP18JNI_ArgumentPusherP6Thread
   fun:jni_CallStaticBooleanMethodV
   fun:JNU_CallStaticMethodByName
   fun:JNU_NewStringPlatform
   fun:Java_java_lang_System_initProperties
   obj:*
   obj:*
}
{
   <insert_a_suppression_name_here>
   Memcheck:Addr4
   obj:*
   obj:*
   obj:*
   obj:*
   obj:*
   obj:*
   obj:*
   fun:_ZN9JavaCalls11call_helperEP9JavaValueP12methodHandleP17JavaCallArgumentsP6Thread
   fun:_ZN9JavaCalls4callEP9JavaValue12methodHandleP17JavaCallArgumentsP6Thread
   fun:_ZL17jni_invoke_staticP7JNIEnv_P9JavaValueP8_jobject11JNICallTypeP10_jmethodIDP18JNI_ArgumentPusherP6Thread
   fun:jni_CallStaticBooleanMethodV
   fun:JNU_CallStaticMethodByName
}
{
   <insert_a_suppression_name_here>
   Memcheck:Addr4
   obj:*
   obj:*
   obj:*
   obj:*
   obj:*
   obj:*
   obj:*
   obj:*
   fun:_ZN9JavaCalls11call_helperEP9JavaValueP12methodHandleP17JavaCallArgumentsP6Thread
   fun:_ZN9JavaCalls4callEP9JavaValue12methodHandleP17JavaCallArgumentsP6Thread
   fun:_ZL17jni_invoke_staticP7JNIEnv_P9JavaValueP8_jobject11JNICallTypeP10_jmethodIDP18JNI_ArgumentPusherP6Thread
   fun:jni_CallStaticBooleanMethodV
}
{
   <insert_a_suppression_name_here>
   Memcheck:Addr4
   obj:*
   obj:*
   obj:*
   obj:*
   obj:*
   obj:*
   obj:*
   obj:*
   obj:*
   obj:*
   obj:*
   obj:*
}
{
   <insert_a_suppression_name_here>
   Memcheck:Addr4
   obj:*
   obj:*
   obj:*
   obj:*
   obj:*
   obj:*
   obj:*
   obj:*
   obj:*
   fun:_ZN9JavaCalls11call_helperEP9JavaValueP12methodHandleP17JavaCallArgumentsP6Thread
   fun:_ZN9JavaCalls4callEP9JavaValue12methodHandleP17JavaCallArgumentsP6Thread
   fun:_ZL20jni_invoke_nonstaticP7JNIEnv_P9JavaValueP8_jobject11JNICallTypeP10_jmethodIDP18JNI_ArgumentPusherP6Thread
}
{
   <insert_a_suppression_name_here>
   Memcheck:Addr4
   obj:*
   obj:*
   obj:*
   obj:*
   obj:*
   obj:*
   fun:_ZN9JavaCalls11call_helperEP9JavaValueP12methodHandleP17JavaCallArgumentsP6Thread
   fun:_ZN9JavaCalls4callEP9JavaValue12methodHandleP17JavaCallArgumentsP6Thread
   fun:_ZL20jni_invoke_nonstaticP7JNIEnv_P9JavaValueP8_jobject11JNICallTypeP10_jmethodIDP18JNI_ArgumentPusherP6Thread
   fun:jni_NewObject
   fun:JNU_NewStringPlatform
   fun:Java_java_lang_System_initProperties
}
{
   <insert_a_suppression_name_here>
   Memcheck:Addr4
   obj:*
   obj:*
   obj:*
   fun:_ZN9JavaCalls11call_helperEP9JavaValueP12methodHandleP17JavaCallArgumentsP6Thread
   fun:_ZN9JavaCalls4callEP9JavaValue12methodHandleP17JavaCallArgumentsP6Thread
   fun:_ZL20jni_invoke_nonstaticP7JNIEnv_P9JavaValueP8_jobject11JNICallTypeP10_jmethodIDP18JNI_ArgumentPusherP6Thread
   fun:jni_CallObjectMethod
   fun:Java_java_lang_System_initProperties
   obj:*
   obj:*
   obj:*
   fun:_ZN9JavaCalls11call_helperEP9JavaValueP12methodHandleP17JavaCallArgumentsP6Thread
}
{
   <insert_a_suppression_name_here>
   Memcheck:Addr4
   obj:*
   obj:*
   obj:*
   obj:*
   fun:_ZN9JavaCalls11call_helperEP9JavaValueP12methodHandleP17JavaCallArgumentsP6Thread
   fun:_ZN9JavaCalls4callEP9JavaValue12methodHandleP17JavaCallArgumentsP6Thread
   fun:_ZN9JavaCalls11call_staticEP9JavaValue11KlassHandleP6SymbolS4_P6Thread
   fun:_ZN7Threads9create_vmEP14JavaVMInitArgsPb
   fun:JNI_CreateJavaVM
   fun:JavaMain
   fun:start_thread
   fun:clone
}
{
   <insert_a_suppression_name_here>
   Memcheck:Addr4
   obj:*
   obj:*
   obj:*
   obj:*
   obj:*
   fun:_ZN9JavaCalls11call_helperEP9JavaValueP12methodHandleP17JavaCallArgumentsP6Thread
   fun:_ZN9JavaCalls4callEP9JavaValue12methodHandleP17JavaCallArgumentsP6Thread
   fun:_ZN9JavaCalls11call_staticEP9JavaValue11KlassHandleP6SymbolS4_P6Thread
   fun:_ZN7Threads9create_vmEP14JavaVMInitArgsPb
   fun:JNI_CreateJavaVM
   fun:JavaMain
   fun:start_thread
}
{
   <insert_a_suppression_name_here>
   Memcheck:Addr4
   obj:*
   obj:*
   obj:*
   fun:_ZN9JavaCalls11call_helperEP9JavaValueP12methodHandleP17JavaCallArgumentsP6Thread
   fun:_ZN9JavaCalls4callEP9JavaValue12methodHandleP17JavaCallArgumentsP6Thread
   fun:_ZN13instanceKlass22call_class_initializerEP6Thread
   fun:_ZN13instanceKlass15initialize_implE19instanceKlassHandleP6Thread
   fun:_ZN13instanceKlass10initializeEP6Thread
   fun:_ZN12LinkResolver13resolve_fieldER15FieldAccessInfo18constantPoolHandleiN9Bytecodes4CodeEbbP6Thread
   fun:_ZN12LinkResolver13resolve_fieldER15FieldAccessInfo18constantPoolHandleiN9Bytecodes4CodeEbP6Thread
   fun:_ZN18InterpreterRuntime15resolve_get_putEP10JavaThreadN9Bytecodes4CodeE
   obj:*
}
{
   <insert_a_suppression_name_here>
   Memcheck:Addr4
   obj:*
   obj:*
   obj:*
   obj:*
   obj:*
   obj:*
   obj:*
   obj:*
   fun:_ZN9JavaCalls11call_helperEP9JavaValueP12methodHandleP17JavaCallArgumentsP6Thread
   fun:_ZN9JavaCalls4callEP9JavaValue12methodHandleP17JavaCallArgumentsP6Thread
   fun:_ZN9JavaCalls11call_staticEP9JavaValue11KlassHandleP6SymbolS4_P6Thread
   fun:_ZN7Threads9create_vmEP14JavaVMInitArgsPb
}
{
   <insert_a_suppression_name_here>
   Memcheck:Addr4
   obj:*
   obj:*
   obj:*
   obj:*
   obj:*
   fun:_ZN9JavaCalls11call_helperEP9JavaValueP12methodHandleP17JavaCallArgumentsP6Thread
   fun:_ZN9JavaCalls4callEP9JavaValue12methodHandleP17JavaCallArgumentsP6Thread
   fun:JVM_DoPrivileged
   obj:*
   obj:*
   obj:*
   obj:*
}
{
   <insert_a_suppression_name_here>
   Memcheck:Addr4
   obj:*
   obj:*
   obj:*
   obj:*
   obj:*
   obj:*
   fun:_ZN9JavaCalls11call_helperEP9JavaValueP12methodHandleP17JavaCallArgumentsP6Thread
   fun:_ZN9JavaCalls4callEP9JavaValue12methodHandleP17JavaCallArgumentsP6Thread
   fun:JVM_DoPrivileged
   obj:*
   obj:*
   obj:*
}
{
   <insert_a_suppression_name_here>
   Memcheck:Addr4
   obj:*
   obj:*
   obj:*
   obj:*
   obj:*
   fun:_ZN9JavaCalls11call_helperEP9JavaValueP12methodHandleP17JavaCallArgumentsP6Thread
   fun:_ZN9JavaCalls4callEP9JavaValue12methodHandleP17JavaCallArgumentsP6Thread
   fun:_ZN9JavaCalls12call_specialEP9JavaValue6Handle11KlassHandleP6SymbolS5_S2_S2_P6Thread
   fun:_ZN21SurrogateLockerThread4makeEP6Thread
   fun:_ZN25ConcurrentMarkSweepThread25makeSurrogateLockerThreadEP6Thread
   fun:_ZN7Threads9create_vmEP14JavaVMInitArgsPb
   fun:JNI_CreateJavaVM
}
{
   <insert_a_suppression_name_here>
   Memcheck:Cond
   fun:_ZN5ArenaC1Ev
   fun:_ZN15ciObjectFactory10initializeEv
   fun:_ZN13CompileBroker20compiler_thread_loopEv
   fun:_ZN10JavaThread17thread_main_innerEv
   fun:_ZN10JavaThread3runEv
   fun:_ZL10java_startP6Thread
   fun:start_thread
   fun:clone
}
{
   <insert_a_suppression_name_here>
   Memcheck:Cond
   fun:_ZN5ArenaC1Ev
   fun:_ZN5ciEnvC1EP5Arena
   fun:_ZN15ciObjectFactory10initializeEv
   fun:_ZN13CompileBroker20compiler_thread_loopEv
   fun:_ZN10JavaThread17thread_main_innerEv
   fun:_ZN10JavaThread3runEv
   fun:_ZL10java_startP6Thread
   fun:start_thread
   fun:clone
}
{
   <insert_a_suppression_name_here>
   Memcheck:Addr4
   obj:*
   obj:*
   obj:*
   obj:*
   fun:_ZN9JavaCalls11call_helperEP9JavaValueP12methodHandleP17JavaCallArgumentsP6Thread
   fun:_ZN9JavaCalls4callEP9JavaValue12methodHandleP17JavaCallArgumentsP6Thread
   fun:_ZN13instanceKlass22call_class_initializerEP6Thread
   fun:_ZN13instanceKlass15initialize_implE19instanceKlassHandleP6Thread
   fun:_ZN13instanceKlass10initializeEP6Thread
   fun:_ZL13get_method_idP7JNIEnv_P7_jclassPKcS4_bP6Thread
   fun:jni_GetStaticMethodID
   fun:JavaMain
}
{
   <insert_a_suppression_name_here>
   Memcheck:Addr4
   obj:*
   obj:*
   obj:*
   obj:*
   obj:*
   obj:*
   obj:*
   obj:*
   fun:_ZN9JavaCalls11call_helperEP9JavaValueP12methodHandleP17JavaCallArgumentsP6Thread
   fun:_ZN9JavaCalls4callEP9JavaValue12methodHandleP17JavaCallArgumentsP6Thread
   fun:JVM_DoPrivileged
   obj:*
}
{
   <insert_a_suppression_name_here>
   Memcheck:Addr4
   obj:*
   obj:*
   obj:*
   obj:*
   obj:*
   obj:*
   obj:*
   obj:*
   obj:*
   fun:_ZN9JavaCalls11call_helperEP9JavaValueP12methodHandleP17JavaCallArgumentsP6Thread
   fun:_ZN9JavaCalls4callEP9JavaValue12methodHandleP17JavaCallArgumentsP6Thread
   fun:JVM_DoPrivileged
}
{
   <insert_a_suppression_name_here>
   Memcheck:Addr4
   obj:*
   obj:*
   obj:*
   obj:*
   obj:*
   obj:*
   fun:_ZN9JavaCalls11call_helperEP9JavaValueP12methodHandleP17JavaCallArgumentsP6Thread
   fun:_ZN9JavaCalls4callEP9JavaValue12methodHandleP17JavaCallArgumentsP6Thread
   fun:_ZL17jni_invoke_staticP7JNIEnv_P9JavaValueP8_jobject11JNICallTypeP10_jmethodIDP18JNI_ArgumentPusherP6Thread
   fun:jni_CallStaticObjectMethod
   fun:JavaMain
   fun:start_thread
}
{
   <insert_a_suppression_name_here>
   Memcheck:Addr4
   obj:*
   obj:*
   obj:*
   obj:*
   obj:*
   obj:*
   obj:*
   fun:_ZN9JavaCalls11call_helperEP9JavaValueP12methodHandleP17JavaCallArgumentsP6Thread
   fun:_ZN9JavaCalls4callEP9JavaValue12methodHandleP17JavaCallArgumentsP6Thread
   fun:_ZL17jni_invoke_staticP7JNIEnv_P9JavaValueP8_jobject11JNICallTypeP10_jmethodIDP18JNI_ArgumentPusherP6Thread
   fun:jni_CallStaticObjectMethod
   fun:JavaMain
}
{
   <insert_a_suppression_name_here>
   Memcheck:Addr4
   obj:*
   obj:*
   obj:*
   obj:*
   obj:*
   obj:*
   obj:*
   obj:*
   fun:_ZN9JavaCalls11call_helperEP9JavaValueP12methodHandleP17JavaCallArgumentsP6Thread
   fun:_ZN9JavaCalls4callEP9JavaValue12methodHandleP17JavaCallArgumentsP6Thread
   fun:_ZL17jni_invoke_staticP7JNIEnv_P9JavaValueP8_jobject11JNICallTypeP10_jmethodIDP18JNI_ArgumentPusherP6Thread
   fun:jni_CallStaticObjectMethod
}
{
   <insert_a_suppression_name_here>
   Memcheck:Addr4
   obj:*
   obj:*
   obj:*
   obj:*
   obj:*
   obj:*
   obj:*
   obj:*
   obj:*
   fun:_ZN9JavaCalls11call_helperEP9JavaValueP12methodHandleP17JavaCallArgumentsP6Thread
   fun:_ZN9JavaCalls4callEP9JavaValue12methodHandleP17JavaCallArgumentsP6Thread
   fun:_ZL17jni_invoke_staticP7JNIEnv_P9JavaValueP8_jobject11JNICallTypeP10_jmethodIDP18JNI_ArgumentPusherP6Thread
}
{
   <insert_a_suppression_name_here>
   Memcheck:Addr4
   obj:*
   obj:*
   obj:*
   obj:*
   obj:*
   obj:*
   obj:*
   obj:*
   obj:*
   obj:*
   fun:_ZN9JavaCalls11call_helperEP9JavaValueP12methodHandleP17JavaCallArgumentsP6Thread
   fun:_ZN9JavaCalls4callEP9JavaValue12methodHandleP17JavaCallArgumentsP6Thread
}
{
   <insert_a_suppression_name_here>
   Memcheck:Addr4
   obj:*
   obj:*
   fun:_ZN9JavaCalls11call_helperEP9JavaValueP12methodHandleP17JavaCallArgumentsP6Thread
   fun:_ZN9JavaCalls4callEP9JavaValue12methodHandleP17JavaCallArgumentsP6Thread
   fun:_ZN9JavaCalls12call_virtualEP9JavaValue11KlassHandleP6SymbolS4_P17JavaCallArgumentsP6Thread
   fun:_ZN9JavaCalls12call_virtualEP9JavaValue6Handle11KlassHandleP6SymbolS5_S2_P6Thread
   fun:_ZN16SystemDictionary19load_instance_classEP6Symbol6HandleP6Thread
   fun:_ZN16SystemDictionary30resolve_instance_class_or_nullEP6Symbol6HandleS2_P6Thread
   fun:_ZN16SystemDictionary15resolve_or_nullEP6Symbol6HandleS2_P6Thread
   fun:_ZN16SystemDictionary15resolve_or_failEP6Symbol6HandleS2_bP6Thread
   fun:_Z25get_mirror_from_signature12methodHandleP15SignatureStreamP6Thread
   fun:_ZN10Reflection19get_parameter_typesE12methodHandleiPP7oopDescP6Thread
}
{
   <insert_a_suppression_name_here>
   Memcheck:Addr4
   obj:*
   obj:*
   obj:*
   obj:*
   obj:*
   obj:*
   obj:*
   fun:_ZN9JavaCalls11call_helperEP9JavaValueP12methodHandleP17JavaCallArgumentsP6Thread
   fun:_ZN9JavaCalls4callEP9JavaValue12methodHandleP17JavaCallArgumentsP6Thread
   fun:_ZN9JavaCalls12call_virtualEP9JavaValue11KlassHandleP6SymbolS4_P17JavaCallArgumentsP6Thread
   fun:_ZN9JavaCalls12call_virtualEP9JavaValue6Handle11KlassHandleP6SymbolS5_S2_P6Thread
   fun:_ZN16SystemDictionary19load_instance_classEP6Symbol6HandleP6Thread
}
{
   <insert_a_suppression_name_here>
   Memcheck:Addr4
   obj:*
   obj:*
   obj:*
   fun:_ZN9JavaCalls11call_helperEP9JavaValueP12methodHandleP17JavaCallArgumentsP6Thread
   fun:_ZN9JavaCalls4callEP9JavaValue12methodHandleP17JavaCallArgumentsP6Thread
   fun:_ZN9JavaCalls12call_specialEP9JavaValue6Handle11KlassHandleP6SymbolS5_S2_S2_P6Thread
   fun:_ZN16SystemDictionary26validate_protection_domainE19instanceKlassHandle6HandleS1_P6Thread
   fun:_ZN16SystemDictionary30resolve_instance_class_or_nullEP6Symbol6HandleS2_P6Thread
   fun:_ZN16SystemDictionary15resolve_or_nullEP6Symbol6HandleS2_P6Thread
   fun:_ZN16SystemDictionary15resolve_or_failEP6Symbol6HandleS2_bP6Thread
   fun:_Z25get_mirror_from_signature12methodHandleP15SignatureStreamP6Thread
   fun:_ZN10Reflection19get_parameter_typesE12methodHandleiPP7oopDescP6Thread
}
{
   <insert_a_suppression_name_here>
   Memcheck:Addr4
   obj:*
   obj:*
   obj:*
   obj:*
   obj:*
   obj:*
   fun:_ZN9JavaCalls11call_helperEP9JavaValueP12methodHandleP17JavaCallArgumentsP6Thread
   fun:_ZN9JavaCalls4callEP9JavaValue12methodHandleP17JavaCallArgumentsP6Thread
   fun:_ZN9JavaCalls12call_specialEP9JavaValue6Handle11KlassHandleP6SymbolS5_S2_S2_P6Thread
   fun:_ZN16SystemDictionary26validate_protection_domainE19instanceKlassHandle6HandleS1_P6Thread
   fun:_ZN16SystemDictionary30resolve_instance_class_or_nullEP6Symbol6HandleS2_P6Thread
   fun:_ZN16SystemDictionary15resolve_or_nullEP6Symbol6HandleS2_P6Thread
}
{
   <insert_a_suppression_name_here>
   Memcheck:Addr4
   obj:*
   obj:*
   obj:*
   obj:*
   fun:_ZN9JavaCalls11call_helperEP9JavaValueP12methodHandleP17JavaCallArgumentsP6Thread
   fun:_ZN9JavaCalls4callEP9JavaValue12methodHandleP17JavaCallArgumentsP6Thread
   fun:_ZL17jni_invoke_staticP7JNIEnv_P9JavaValueP8_jobject11JNICallTypeP10_jmethodIDP18JNI_ArgumentPusherP6Thread
   fun:jni_CallStaticObjectMethod
   fun:JavaMain
   fun:start_thread
   fun:clone
}
{
   <insert_a_suppression_name_here>
   Memcheck:Addr4
   obj:*
   obj:*
   fun:_ZN9JavaCalls11call_helperEP9JavaValueP12methodHandleP17JavaCallArgumentsP6Thread
   fun:_ZN9JavaCalls4callEP9JavaValue12methodHandleP17JavaCallArgumentsP6Thread
   fun:_ZN13instanceKlass22call_class_initializerEP6Thread
   fun:_ZN13instanceKlass15initialize_implE19instanceKlassHandleP6Thread
   fun:_ZN13instanceKlass10initializeEP6Thread
   fun:_ZN12LinkResolver13resolve_fieldER15FieldAccessInfo18constantPoolHandleiN9Bytecodes4CodeEbbP6Thread
   fun:_ZN12LinkResolver13resolve_fieldER15FieldAccessInfo18constantPoolHandleiN9Bytecodes4CodeEbP6Thread
   fun:_ZN18InterpreterRuntime15resolve_get_putEP10JavaThreadN9Bytecodes4CodeE
   obj:*
   obj:*
}
{
   <insert_a_suppression_name_here>
   Memcheck:Addr4
   obj:*
   obj:*
   obj:*
   obj:*
   obj:*
   obj:*
   obj:*
   obj:*
   obj:*
   fun:_ZN9JavaCalls11call_helperEP9JavaValueP12methodHandleP17JavaCallArgumentsP6Thread
   fun:_ZN9JavaCalls4callEP9JavaValue12methodHandleP17JavaCallArgumentsP6Thread
   fun:_ZN13instanceKlass22call_class_initializerEP6Thread
}
{
   <insert_a_suppression_name_here>
   Memcheck:Addr4
   obj:*
   obj:*
   obj:*
   obj:*
   obj:*
   obj:*
   obj:*
   obj:*
   obj:*
   obj:*
   obj:*
   fun:_ZN9JavaCalls11call_helperEP9JavaValueP12methodHandleP17JavaCallArgumentsP6Thread
}
{
   <insert_a_suppression_name_here>
   Memcheck:Addr4
   obj:*
   obj:*
   obj:*
   obj:*
   obj:*
   obj:*
   obj:*
   fun:_ZN9JavaCalls11call_helperEP9JavaValueP12methodHandleP17JavaCallArgumentsP6Thread
   fun:_ZN9JavaCalls4callEP9JavaValue12methodHandleP17JavaCallArgumentsP6Thread
   fun:JVM_DoPrivileged
   obj:*
   obj:*
}
{
   <insert_a_suppression_name_here>
   Memcheck:Addr4
   obj:*
   obj:*
   obj:*
   obj:*
   obj:*
   fun:_ZN9JavaCalls11call_helperEP9JavaValueP12methodHandleP17JavaCallArgumentsP6Thread
   fun:_ZN9JavaCalls4callEP9JavaValue12methodHandleP17JavaCallArgumentsP6Thread
   fun:_ZL20jni_invoke_nonstaticP7JNIEnv_P9JavaValueP8_jobject11JNICallTypeP10_jmethodIDP18JNI_ArgumentPusherP6Thread
   fun:jni_CallObjectMethod
   fun:JNU_GetStringPlatformChars
   fun:Java_java_io_UnixFileSystem_getBooleanAttributes0
   obj:*
}
{
   <insert_a_suppression_name_here>
   Memcheck:Addr4
   obj:*
   obj:*
   fun:_ZN9JavaCalls11call_helperEP9JavaValueP12methodHandleP17JavaCallArgumentsP6Thread
   fun:_ZN9JavaCalls4callEP9JavaValue12methodHandleP17JavaCallArgumentsP6Thread
   fun:_ZN13instanceKlass22call_class_initializerEP6Thread
   fun:_ZN13instanceKlass15initialize_implE19instanceKlassHandleP6Thread
   fun:_ZN13instanceKlass10initializeEP6Thread
   fun:_ZN12LinkResolver19resolve_static_callER8CallInfoR11KlassHandleP6SymbolS5_S2_bbP6Thread
   fun:_ZN12LinkResolver20resolve_invokestaticER8CallInfo18constantPoolHandleiP6Thread
   fun:_ZN18InterpreterRuntime14resolve_invokeEP10JavaThreadN9Bytecodes4CodeE
   obj:*
   obj:*
}
{
   <insert_a_suppression_name_here>
   Memcheck:Addr4
   obj:*
   obj:*
   obj:*
   fun:_ZN9JavaCalls11call_helperEP9JavaValueP12methodHandleP17JavaCallArgumentsP6Thread
   fun:_ZN9JavaCalls4callEP9JavaValue12methodHandleP17JavaCallArgumentsP6Thread
   fun:_ZN9JavaCalls12call_virtualEP9JavaValue11KlassHandleP6SymbolS4_P17JavaCallArgumentsP6Thread
   fun:_ZN9JavaCalls12call_virtualEP9JavaValue6Handle11KlassHandleP6SymbolS5_S2_P6Thread
   fun:_ZN16SystemDictionary19load_instance_classEP6Symbol6HandleP6Thread
   fun:_ZN16SystemDictionary30resolve_instance_class_or_nullEP6Symbol6HandleS2_P6Thread
   fun:_ZN16SystemDictionary15resolve_or_nullEP6Symbol6HandleS2_P6Thread
   fun:_ZN16SystemDictionary15resolve_or_failEP6Symbol6HandleS2_bP6Thread
   fun:_ZN19constantPoolOopDesc13klass_at_implE18constantPoolHandleiP6Thread
}
{
   <insert_a_suppression_name_here>
   Memcheck:Addr4
   obj:*
   obj:*
   obj:*
   obj:*
   fun:_ZN9JavaCalls11call_helperEP9JavaValueP12methodHandleP17JavaCallArgumentsP6Thread
   fun:_ZN9JavaCalls4callEP9JavaValue12methodHandleP17JavaCallArgumentsP6Thread
   fun:_ZN9JavaCalls12call_virtualEP9JavaValue11KlassHandleP6SymbolS4_P17JavaCallArgumentsP6Thread
   fun:_ZN9JavaCalls12call_virtualEP9JavaValue6Handle11KlassHandleP6SymbolS5_S2_P6Thread
   fun:_ZN16SystemDictionary19load_instance_classEP6Symbol6HandleP6Thread
   fun:_ZN16SystemDictionary30resolve_instance_class_or_nullEP6Symbol6HandleS2_P6Thread
   fun:_ZN16SystemDictionary15resolve_or_nullEP6Symbol6HandleS2_P6Thread
   fun:_ZN16SystemDictionary15resolve_or_failEP6Symbol6HandleS2_bP6Thread
}
{
   <insert_a_suppression_name_here>
   Memcheck:Addr4
   obj:*
   obj:*
   obj:*
   obj:*
   obj:*
   obj:*
   fun:_ZN9JavaCalls11call_helperEP9JavaValueP12methodHandleP17JavaCallArgumentsP6Thread
   fun:_ZN9JavaCalls4callEP9JavaValue12methodHandleP17JavaCallArgumentsP6Thread
   fun:_ZN9JavaCalls12call_virtualEP9JavaValue11KlassHandleP6SymbolS4_P17JavaCallArgumentsP6Thread
   fun:_ZN9JavaCalls12call_virtualEP9JavaValue6Handle11KlassHandleP6SymbolS5_S2_P6Thread
   fun:_ZN16SystemDictionary19load_instance_classEP6Symbol6HandleP6Thread
   fun:_ZN16SystemDictionary30resolve_instance_class_or_nullEP6Symbol6HandleS2_P6Thread
}
{
   <insert_a_suppression_name_here>
   Memcheck:Addr4
   obj:*
   obj:*
   obj:*
   obj:*
   obj:*
   obj:*
   obj:*
   obj:*
   fun:_ZN9JavaCalls11call_helperEP9JavaValueP12methodHandleP17JavaCallArgumentsP6Thread
   fun:_ZN9JavaCalls4callEP9JavaValue12methodHandleP17JavaCallArgumentsP6Thread
   fun:_ZN9JavaCalls12call_virtualEP9JavaValue11KlassHandleP6SymbolS4_P17JavaCallArgumentsP6Thread
   fun:_ZN9JavaCalls12call_virtualEP9JavaValue6Handle11KlassHandleP6SymbolS5_S2_P6Thread
}
{
   <insert_a_suppression_name_here>
   Memcheck:Addr4
   obj:*
   obj:*
   obj:*
   fun:_ZN9JavaCalls11call_helperEP9JavaValueP12methodHandleP17JavaCallArgumentsP6Thread
   fun:_ZN9JavaCalls4callEP9JavaValue12methodHandleP17JavaCallArgumentsP6Thread
   fun:_ZN9JavaCalls12call_specialEP9JavaValue6Handle11KlassHandleP6SymbolS5_S2_S2_P6Thread
   fun:_ZN16SystemDictionary26validate_protection_domainE19instanceKlassHandle6HandleS1_P6Thread
   fun:_ZN16SystemDictionary30resolve_instance_class_or_nullEP6Symbol6HandleS2_P6Thread
   fun:_ZN16SystemDictionary15resolve_or_nullEP6Symbol6HandleS2_P6Thread
   fun:_ZN16SystemDictionary15resolve_or_failEP6Symbol6HandleS2_bP6Thread
   fun:_ZN19constantPoolOopDesc13klass_at_implE18constantPoolHandleiP6Thread
   fun:_ZN12LinkResolver20resolve_invokestaticER8CallInfo18constantPoolHandleiP6Thread
}
{
   <insert_a_suppression_name_here>
   Memcheck:Addr4
   obj:*
   obj:*
   obj:*
   obj:*
   obj:*
   obj:*
   fun:_ZN9JavaCalls11call_helperEP9JavaValueP12methodHandleP17JavaCallArgumentsP6Thread
   fun:_ZN9JavaCalls4callEP9JavaValue12methodHandleP17JavaCallArgumentsP6Thread
   fun:_ZN13instanceKlass22call_class_initializerEP6Thread
   fun:_ZN13instanceKlass15initialize_implE19instanceKlassHandleP6Thread
   fun:_ZN13instanceKlass10initializeEP6Thread
   fun:_ZN12LinkResolver13resolve_fieldER15FieldAccessInfo18constantPoolHandleiN9Bytecodes4CodeEbbP6Thread
}
{
   <insert_a_suppression_name_here>
   Memcheck:Cond
   fun:_ZN5ArenaC1Ev
   fun:_ZN7CompileC1EP5ciEnvPFPK8TypeFuncvEPhPKcibbb
   fun:_ZN11OptoRuntime13generate_stubEP5ciEnvPFPK8TypeFuncvEPhPKcibbb
   fun:_ZN11OptoRuntime8generateEP5ciEnv
   fun:_ZN10C2Compiler18initialize_runtimeEv
   fun:_ZN16AbstractCompiler19initialize_runtimesEPFvvEPVi
   fun:_ZN10C2Compiler10initializeEv
   fun:_ZN10C2Compiler14compile_methodEP5ciEnvP8ciMethodi
   fun:_ZN13CompileBroker25invoke_compiler_on_methodEP11CompileTask
   fun:_ZN13CompileBroker20compiler_thread_loopEv
   fun:_ZN10JavaThread17thread_main_innerEv
   fun:_ZN10JavaThread3runEv
}
{
   <insert_a_suppression_name_here>
   Memcheck:Cond
   fun:_ZN5ArenaC1Ev
   fun:_ZN4Type17Initialize_sharedEP7Compile
   fun:_ZN4Type10InitializeEP7Compile
   fun:_ZN7CompileC1EP5ciEnvPFPK8TypeFuncvEPhPKcibbb
   fun:_ZN11OptoRuntime13generate_stubEP5ciEnvPFPK8TypeFuncvEPhPKcibbb
   fun:_ZN11OptoRuntime8generateEP5ciEnv
   fun:_ZN10C2Compiler18initialize_runtimeEv
   fun:_ZN16AbstractCompiler19initialize_runtimesEPFvvEPVi
   fun:_ZN10C2Compiler10initializeEv
   fun:_ZN10C2Compiler14compile_methodEP5ciEnvP8ciMethodi
   fun:_ZN13CompileBroker25invoke_compiler_on_methodEP11CompileTask
   fun:_ZN13CompileBroker20compiler_thread_loopEv
}
{
   <insert_a_suppression_name_here>
   Memcheck:Cond
   fun:_ZN5ArenaC2Em
   fun:_ZN7MatcherC1ER9Node_List
   fun:_ZN7Compile8Code_GenEv
   fun:_ZN7CompileC1EP5ciEnvPFPK8TypeFuncvEPhPKcibbb
   fun:_ZN11OptoRuntime13generate_stubEP5ciEnvPFPK8TypeFuncvEPhPKcibbb
   fun:_ZN11OptoRuntime8generateEP5ciEnv
   fun:_ZN10C2Compiler18initialize_runtimeEv
   fun:_ZN16AbstractCompiler19initialize_runtimesEPFvvEPVi
   fun:_ZN10C2Compiler10initializeEv
   fun:_ZN10C2Compiler14compile_methodEP5ciEnvP8ciMethodi
   fun:_ZN13CompileBroker25invoke_compiler_on_methodEP11CompileTask
   fun:_ZN13CompileBroker20compiler_thread_loopEv
}
{
   <insert_a_suppression_name_here>
   Memcheck:Cond
   fun:_ZN5ArenaC2Ev
   fun:_ZN12PhaseChaitin17Register_AllocateEv
   fun:_ZN7Compile8Code_GenEv
   fun:_ZN7CompileC1EP5ciEnvPFPK8TypeFuncvEPhPKcibbb
   fun:_ZN11OptoRuntime13generate_stubEP5ciEnvPFPK8TypeFuncvEPhPKcibbb
   fun:_ZN11OptoRuntime8generateEP5ciEnv
   fun:_ZN10C2Compiler18initialize_runtimeEv
   fun:_ZN16AbstractCompiler19initialize_runtimesEPFvvEPVi
   fun:_ZN10C2Compiler10initializeEv
   fun:_ZN10C2Compiler14compile_methodEP5ciEnvP8ciMethodi
   fun:_ZN13CompileBroker25invoke_compiler_on_methodEP11CompileTask
   fun:_ZN13CompileBroker20compiler_thread_loopEv
}
{
   <insert_a_suppression_name_here>
   Memcheck:Cond
   fun:_ZNK29ConcurrentMarkSweepGeneration25should_concurrent_collectEv
   fun:_ZN12CMSCollector23shouldConcurrentCollectEv
   fun:_ZN25ConcurrentMarkSweepThread3runEv
   fun:_ZL10java_startP6Thread
   fun:start_thread
   fun:clone
}
{
   <insert_a_suppression_name_here>
   Memcheck:Cond
   fun:_ZN5ArenaC1Ev
   fun:_ZN7CompileC1EP5ciEnvP10C2CompilerP8ciMethodibb
   fun:_ZN10C2Compiler14compile_methodEP5ciEnvP8ciMethodi
   fun:_ZN13CompileBroker25invoke_compiler_on_methodEP11CompileTask
   fun:_ZN13CompileBroker20compiler_thread_loopEv
   fun:_ZN10JavaThread17thread_main_innerEv
   fun:_ZN10JavaThread3runEv
   fun:_ZL10java_startP6Thread
   fun:start_thread
   fun:clone
}
{
   <insert_a_suppression_name_here>
   Memcheck:Addr4
   obj:*
   obj:*
   obj:*
}
{
   <insert_a_suppression_name_here>
   Memcheck:Addr8
   obj:*
   obj:*
   obj:*
}
{
   <insert_a_suppression_name_here>
   Memcheck:Addr4
   obj:*
   obj:*
   obj:*
   obj:*
}
{
   <insert_a_suppression_name_here>
   Memcheck:Addr4
   obj:*
   obj:*
}
{
   <insert_a_suppression_name_here>
   Memcheck:Addr4
   obj:*
   obj:*
   obj:*
   fun:_ZN9JavaCalls11call_helperEP9JavaValueP12methodHandleP17JavaCallArgumentsP6Thread
   fun:_ZN9JavaCalls4callEP9JavaValue12methodHandleP17JavaCallArgumentsP6Thread
   fun:_ZN16SystemDictionary21define_instance_classE19instanceKlassHandleP6Thread
   fun:_ZN16SystemDictionary29find_or_define_instance_classEP6Symbol6Handle19instanceKlassHandleP6Thread
   fun:_ZN16SystemDictionary19resolve_from_streamEP6Symbol6HandleS2_P15ClassFileStreambP6Thread
   fun:_ZL23jvm_define_class_commonP7JNIEnv_PKcP8_jobjectPKaiS4_S2_hP6Thread
   fun:JVM_DefineClassWithSource
   fun:Java_java_lang_ClassLoader_defineClass1
   obj:*
}
{
   <insert_a_suppression_name_here>
   Memcheck:Addr4
   obj:*
   obj:*
   obj:*
   obj:*
   obj:*
   fun:_ZN9JavaCalls11call_helperEP9JavaValueP12methodHandleP17JavaCallArgumentsP6Thread
   fun:_ZN9JavaCalls4callEP9JavaValue12methodHandleP17JavaCallArgumentsP6Thread
   fun:_ZN9JavaCalls12call_virtualEP9JavaValue11KlassHandleP6SymbolS4_P17JavaCallArgumentsP6Thread
   fun:_ZN9JavaCalls12call_virtualEP9JavaValue6Handle11KlassHandleP6SymbolS5_S2_P6Thread
   fun:_ZN16SystemDictionary19load_instance_classEP6Symbol6HandleP6Thread
   fun:_ZN16SystemDictionary30resolve_instance_class_or_nullEP6Symbol6HandleS2_P6Thread
   fun:_ZN16SystemDictionary15resolve_or_nullEP6Symbol6HandleS2_P6Thread
}
{
   <insert_a_suppression_name_here>
   Memcheck:Addr4
   obj:*
   obj:*
   obj:*
   obj:*
   obj:*
   obj:*
   obj:*
   obj:*
   obj:*
   fun:_ZN9JavaCalls11call_helperEP9JavaValueP12methodHandleP17JavaCallArgumentsP6Thread
   fun:_ZN9JavaCalls4callEP9JavaValue12methodHandleP17JavaCallArgumentsP6Thread
   fun:_ZN9JavaCalls12call_virtualEP9JavaValue11KlassHandleP6SymbolS4_P17JavaCallArgumentsP6Thread
}
{
   <insert_a_suppression_name_here>
   Memcheck:Addr4
   obj:*
   obj:*
   fun:_ZN9JavaCalls11call_helperEP9JavaValueP12methodHandleP17JavaCallArgumentsP6Thread
   fun:_ZN9JavaCalls4callEP9JavaValue12methodHandleP17JavaCallArgumentsP6Thread
   fun:_ZN16SystemDictionary21define_instance_classE19instanceKlassHandleP6Thread
   fun:_ZN16SystemDictionary29find_or_define_instance_classEP6Symbol6Handle19instanceKlassHandleP6Thread
   fun:_ZN16SystemDictionary19resolve_from_streamEP6Symbol6HandleS2_P15ClassFileStreambP6Thread
   fun:_ZL23jvm_define_class_commonP7JNIEnv_PKcP8_jobjectPKaiS4_S2_hP6Thread
   fun:JVM_DefineClassWithSource
   fun:Java_java_lang_ClassLoader_defineClass1
   obj:*
   obj:*
}
{
   <insert_a_suppression_name_here>
   Memcheck:Addr4
   obj:*
   obj:*
   obj:*
   obj:*
   fun:_ZN9JavaCalls11call_helperEP9JavaValueP12methodHandleP17JavaCallArgumentsP6Thread
   fun:_ZN9JavaCalls4callEP9JavaValue12methodHandleP17JavaCallArgumentsP6Thread
   fun:_ZN16SystemDictionary21define_instance_classE19instanceKlassHandleP6Thread
   fun:_ZN16SystemDictionary29find_or_define_instance_classEP6Symbol6Handle19instanceKlassHandleP6Thread
   fun:_ZN16SystemDictionary19resolve_from_streamEP6Symbol6HandleS2_P15ClassFileStreambP6Thread
   fun:_ZL23jvm_define_class_commonP7JNIEnv_PKcP8_jobjectPKaiS4_S2_hP6Thread
   fun:JVM_DefineClassWithSource
   fun:Java_java_lang_ClassLoader_defineClass1
}
{
   <insert_a_suppression_name_here>
   Memcheck:Addr4
   obj:*
   obj:*
   obj:*
   obj:*
   obj:*
   obj:*
   obj:*
   obj:*
   fun:_ZN9JavaCalls11call_helperEP9JavaValueP12methodHandleP17JavaCallArgumentsP6Thread
   fun:_ZN9JavaCalls4callEP9JavaValue12methodHandleP17JavaCallArgumentsP6Thread
   fun:_ZL20jni_invoke_nonstaticP7JNIEnv_P9JavaValueP8_jobject11JNICallTypeP10_jmethodIDP18JNI_ArgumentPusherP6Thread
   fun:jni_CallObjectMethod
}
{
   <insert_a_suppression_name_here>
   Memcheck:Addr4
   obj:*
   obj:*
   obj:*
   fun:_ZN9JavaCalls11call_helperEP9JavaValueP12methodHandleP17JavaCallArgumentsP6Thread
   fun:_ZN9JavaCalls4callEP9JavaValue12methodHandleP17JavaCallArgumentsP6Thread
   fun:_ZN9JavaCalls12call_specialEP9JavaValue6Handle11KlassHandleP6SymbolS5_S2_S2_P6Thread
   fun:_ZN16SystemDictionary26validate_protection_domainE19instanceKlassHandle6HandleS1_P6Thread
   fun:_ZN16SystemDictionary30resolve_instance_class_or_nullEP6Symbol6HandleS2_P6Thread
   fun:_ZN16SystemDictionary15resolve_or_nullEP6Symbol6HandleS2_P6Thread
   fun:_ZN16SystemDictionary15resolve_or_failEP6Symbol6HandleS2_bP6Thread
   fun:_Z28find_class_from_class_loaderP7JNIEnv_P6Symbolh6HandleS3_hP6Thread
   fun:JVM_FindClassFromClass
}
{
   <insert_a_suppression_name_here>
   Memcheck:Addr4
   obj:*
   obj:*
   fun:_ZN9JavaCalls11call_helperEP9JavaValueP12methodHandleP17JavaCallArgumentsP6Thread
   fun:_ZN9JavaCalls4callEP9JavaValue12methodHandleP17JavaCallArgumentsP6Thread
   fun:JVM_DoPrivileged
   obj:*
   obj:*
   obj:*
   obj:*
   obj:*
   obj:*
   obj:*
}
{
   <insert_a_suppression_name_here>
   Memcheck:Addr4
   obj:*
   obj:*
   obj:*
   obj:*
   obj:*
   fun:_ZN9JavaCalls11call_helperEP9JavaValueP12methodHandleP17JavaCallArgumentsP6Thread
   fun:_ZN9JavaCalls4callEP9JavaValue12methodHandleP17JavaCallArgumentsP6Thread
   fun:_ZN10Reflection6invokeE19instanceKlassHandle12methodHandle6Handleb14objArrayHandle9BasicTypeS3_bP6Thread
   fun:_ZN10Reflection18invoke_constructorEP7oopDesc14objArrayHandleP6Thread
   fun:JVM_NewInstanceFromConstructor
   obj:*
   obj:*
}
{
   <insert_a_suppression_name_here>
   Memcheck:Cond
   fun:_ZNK8JVMState13clone_shallowEP7Compile
   fun:_ZN8GraphKit9clone_mapEv
   fun:_ZN8GraphKit13set_map_cloneEP13SafePointNode
   fun:_ZN5ParseC1EP8JVMStateP8ciMethodf
   fun:_ZN14ParseGenerator8generateEP8JVMState
   fun:_ZN7CompileC1EP5ciEnvP10C2CompilerP8ciMethodibb
   fun:_ZN10C2Compiler14compile_methodEP5ciEnvP8ciMethodi
   fun:_ZN13CompileBroker25invoke_compiler_on_methodEP11CompileTask
   fun:_ZN13CompileBroker20compiler_thread_loopEv
   fun:_ZN10JavaThread17thread_main_innerEv
   fun:_ZN10JavaThread3runEv
   fun:_ZL10java_startP6Thread
}
{
   <insert_a_suppression_name_here>
   Memcheck:Cond
   fun:_ZN8GraphKit19add_safepoint_edgesEP13SafePointNodeb
   fun:_ZN8GraphKit17make_runtime_callEiPK8TypeFuncPhPKcPK7TypePtrP4NodeSA_SA_SA_SA_SA_SA_SA_
   fun:_ZN8GraphKit13uncommon_trapEiP7ciKlassPKcbb
   fun:_ZN8GraphKit28maybe_cast_profiled_receiverEP4NodeP11ProfileDataP7ciKlass
   fun:_ZN8GraphKit14gen_instanceofEP4NodeS1_
   fun:_ZN5Parse13do_instanceofEv
   fun:_ZN5Parse15do_one_bytecodeEv
   fun:_ZN5Parse12do_one_blockEv
   fun:_ZN5Parse13do_all_blocksEv
   fun:_ZN5ParseC1EP8JVMStateP8ciMethodf
   fun:_ZN14ParseGenerator8generateEP8JVMState
   fun:_ZN7CompileC1EP5ciEnvP10C2CompilerP8ciMethodibb
}
{
   <insert_a_suppression_name_here>
   Memcheck:Cond
   fun:_ZNK8JVMState13clone_shallowEP7Compile
   fun:_ZNK8JVMState10clone_deepEP7Compile
   fun:_ZN8GraphKit19add_safepoint_edgesEP13SafePointNodeb
   fun:_ZN8GraphKit17make_runtime_callEiPK8TypeFuncPhPKcPK7TypePtrP4NodeSA_SA_SA_SA_SA_SA_SA_
   fun:_ZN8GraphKit13uncommon_trapEiP7ciKlassPKcbb
   fun:_ZN8GraphKit28maybe_cast_profiled_receiverEP4NodeP11ProfileDataP7ciKlass
   fun:_ZN8GraphKit14gen_instanceofEP4NodeS1_
   fun:_ZN5Parse13do_instanceofEv
   fun:_ZN5Parse15do_one_bytecodeEv
   fun:_ZN5Parse12do_one_blockEv
   fun:_ZN5Parse13do_all_blocksEv
   fun:_ZN5ParseC1EP8JVMStateP8ciMethodf
}
{
   <insert_a_suppression_name_here>
   Memcheck:Cond
   fun:_ZN8GraphKit19add_safepoint_edgesEP13SafePointNodeb
   fun:_ZN5Parse13add_safepointEv
   fun:_ZN5Parse15do_one_bytecodeEv
   fun:_ZN5Parse12do_one_blockEv
   fun:_ZN5Parse13do_all_blocksEv
   fun:_ZN5ParseC1EP8JVMStateP8ciMethodf
   fun:_ZN14ParseGenerator8generateEP8JVMState
   fun:_ZN7CompileC1EP5ciEnvP10C2CompilerP8ciMethodibb
   fun:_ZN10C2Compiler14compile_methodEP5ciEnvP8ciMethodi
   fun:_ZN13CompileBroker25invoke_compiler_on_methodEP11CompileTask
   fun:_ZN13CompileBroker20compiler_thread_loopEv
   fun:_ZN10JavaThread17thread_main_innerEv
}
{
   <insert_a_suppression_name_here>
   Memcheck:Addr4
   obj:*
   obj:*
   fun:_ZN9JavaCalls11call_helperEP9JavaValueP12methodHandleP17JavaCallArgumentsP6Thread
   fun:_ZN9JavaCalls4callEP9JavaValue12methodHandleP17JavaCallArgumentsP6Thread
   fun:_ZN13instanceKlass22call_class_initializerEP6Thread
   fun:_ZN13instanceKlass15initialize_implE19instanceKlassHandleP6Thread
   fun:_ZN13instanceKlass10initializeEP6Thread
   fun:_ZL13get_method_idP7JNIEnv_P7_jclassPKcS4_bP6Thread
   fun:jni_GetStaticMethodID
   fun:JavaMain
   fun:start_thread
   fun:clone
}
{
   <insert_a_suppression_name_here>
   Memcheck:Addr4
   obj:*
   obj:*
   obj:*
   obj:*
   obj:*
   fun:_ZN9JavaCalls11call_helperEP9JavaValueP12methodHandleP17JavaCallArgumentsP6Thread
   fun:_ZN9JavaCalls4callEP9JavaValue12methodHandleP17JavaCallArgumentsP6Thread
   fun:_ZL17jni_invoke_staticP7JNIEnv_P9JavaValueP8_jobject11JNICallTypeP10_jmethodIDP18JNI_ArgumentPusherP6Thread
   fun:jni_CallStaticVoidMethod
   fun:JavaMain
   fun:start_thread
   fun:clone
}
{
   <insert_a_suppression_name_here>
   Memcheck:Addr4
   obj:*
   obj:*
   obj:*
   obj:*
   obj:*
   obj:*
   obj:*
   obj:*
   obj:*
   fun:_ZN9JavaCalls11call_helperEP9JavaValueP12methodHandleP17JavaCallArgumentsP6Thread
   fun:_ZN9JavaCalls4callEP9JavaValue12methodHandleP17JavaCallArgumentsP6Thread
   fun:_ZN10Reflection6invokeE19instanceKlassHandle12methodHandle6Handleb14objArrayHandle9BasicTypeS3_bP6Thread
}
{
   <insert_a_suppression_name_here>
   Memcheck:Addr4
   obj:*
   obj:*
   obj:*
   obj:*
   fun:_ZN9JavaCalls11call_helperEP9JavaValueP12methodHandleP17JavaCallArgumentsP6Thread
   fun:_ZN9JavaCalls4callEP9JavaValue12methodHandleP17JavaCallArgumentsP6Thread
   fun:_ZN10Reflection6invokeE19instanceKlassHandle12methodHandle6Handleb14objArrayHandle9BasicTypeS3_bP6Thread
   fun:_ZN10Reflection18invoke_constructorEP7oopDesc14objArrayHandleP6Thread
   fun:JVM_NewInstanceFromConstructor
   obj:*
   obj:*
   obj:*
}
{
   <insert_a_suppression_name_here>
   Memcheck:Addr4
   obj:*
   obj:*
   obj:*
   obj:*
   fun:_ZN9JavaCalls11call_helperEP9JavaValueP12methodHandleP17JavaCallArgumentsP6Thread
   fun:_ZN9JavaCalls4callEP9JavaValue12methodHandleP17JavaCallArgumentsP6Thread
   fun:JVM_DoPrivileged
   obj:*
   obj:*
   obj:*
   obj:*
   obj:*
}
{
   <insert_a_suppression_name_here>
   Memcheck:Addr8
   obj:*
   obj:*
   obj:*
   obj:*
   fun:_ZN9JavaCalls11call_helperEP9JavaValueP12methodHandleP17JavaCallArgumentsP6Thread
   fun:_ZN9JavaCalls4callEP9JavaValue12methodHandleP17JavaCallArgumentsP6Thread
   fun:JVM_DoPrivileged
   obj:*
   obj:*
   obj:*
   obj:*
   obj:*
}
{
   <insert_a_suppression_name_here>
   Memcheck:Cond
   fun:_ZN7Monitor7TrySpinEP6Thread
   fun:_ZN7Monitor4lockEP6Thread
   fun:_ZN20SafepointSynchronize5beginEv
   fun:_ZN8VMThread4loopEv
   fun:_ZN8VMThread3runEv
   fun:_ZL10java_startP6Thread
   fun:start_thread
   fun:clone
}
{
   <insert_a_suppression_name_here>
   Memcheck:Cond
   fun:_ZN7Monitor7TrySpinEP6Thread
   fun:_ZN7Monitor5ILockEP6Thread
   fun:_ZN7Monitor28lock_without_safepoint_checkEv
   fun:_ZN20SafepointSynchronize5blockEP10JavaThread
   fun:_ZN10JavaThread44check_safepoint_and_suspend_for_native_transEPS_
   fun:_ZN17ClassPathZipEntry11open_streamEPKcP6Thread
   fun:_ZN11ClassLoader14load_classfileEP6SymbolP6Thread
   fun:_ZN16SystemDictionary19load_instance_classEP6Symbol6HandleP6Thread
   fun:_ZN16SystemDictionary30resolve_instance_class_or_nullEP6Symbol6HandleS2_P6Thread
   fun:_ZN16SystemDictionary15resolve_or_nullEP6Symbol6HandleS2_P6Thread
   fun:_ZN16SystemDictionary15resolve_or_failEP6Symbol6HandleS2_bP6Thread
   fun:_ZN19constantPoolOopDesc13klass_at_implE18constantPoolHandleiP6Thread
}
{
   <insert_a_suppression_name_here>
   Memcheck:Addr4
   obj:*
   obj:*
   obj:*
   obj:*
   obj:*
   obj:*
   obj:*
   obj:*
   obj:*
   obj:*
   obj:*
}
{
   <insert_a_suppression_name_here>
   Memcheck:Addr8
   obj:*
   obj:*
   obj:*
   obj:*
   obj:*
   obj:*
   obj:*
   obj:*
   obj:*
   obj:*
   obj:*
}
{
   <insert_a_suppression_name_here>
   Memcheck:Addr4
   obj:*
   obj:*
   obj:*
   obj:*
   obj:*
   obj:*
}
{
   <insert_a_suppression_name_here>
   Memcheck:Cond
   obj:*
   obj:*
   fun:_ZN9JavaCalls11call_helperEP9JavaValueP12methodHandleP17JavaCallArgumentsP6Thread
   fun:_ZN9JavaCalls4callEP9JavaValue12methodHandleP17JavaCallArgumentsP6Thread
   fun:_ZN9JavaCalls12call_virtualEP9JavaValue11KlassHandleP6SymbolS4_P17JavaCallArgumentsP6Thread
   fun:_ZN9JavaCalls12call_virtualEP9JavaValue6Handle11KlassHandleP6SymbolS5_P6Thread
   fun:_ZL12thread_entryP10JavaThreadP6Thread
   fun:_ZN10JavaThread17thread_main_innerEv
   fun:_ZN10JavaThread3runEv
   fun:_ZL10java_startP6Thread
   fun:start_thread
   fun:clone
}
{
   <insert_a_suppression_name_here>
   Memcheck:Cond
   fun:_ZN16DefNewGeneration18contribute_scratchERP12ScratchBlockP10Generationm
   fun:_ZN16GenCollectedHeap14gather_scratchEP10Generationm
   fun:_ZN12GenMarkSweep19invoke_at_safepointEiP18ReferenceProcessorb
   fun:_ZN12CMSCollector18do_compaction_workEb
   fun:_ZN12CMSCollector27acquire_control_and_collectEbb
   fun:_ZN29ConcurrentMarkSweepGeneration7collectEbbmb
   fun:_ZN16GenCollectedHeap13do_collectionEbbmbi
   fun:_ZN16GenCollectedHeap18do_full_collectionEbi
   fun:_ZN17VM_GenCollectFull4doitEv
   fun:_ZN12VM_Operation8evaluateEv
   fun:_ZN8VMThread18evaluate_operationEP12VM_Operation
   fun:_ZN8VMThread4loopEv
}
{
   <insert_a_suppression_name_here>
   Memcheck:Addr4
   obj:*
   obj:*
   fun:_ZN9JavaCalls11call_helperEP9JavaValueP12methodHandleP17JavaCallArgumentsP6Thread
   fun:_ZN9JavaCalls4callEP9JavaValue12methodHandleP17JavaCallArgumentsP6Thread
   fun:_ZN9JavaCalls11call_staticEP9JavaValue11KlassHandleP6SymbolS4_6HandleS5_P6Thread
   fun:_ZN12NativeLookup12lookup_styleE12methodHandlePcPKcibRbP6Thread
   fun:_ZN12NativeLookup12lookup_entryE12methodHandleRbP6Thread
   fun:_ZN12NativeLookup11lookup_baseE12methodHandleRbP6Thread
   fun:_ZN12NativeLookup6lookupE12methodHandleRbP6Thread
   fun:_ZN18InterpreterRuntime19prepare_native_callEP10JavaThreadP13methodOopDesc
   obj:*
   obj:*
}
{
   <insert_a_suppression_name_here>
   Memcheck:Addr4
   obj:*
   obj:*
   obj:*
   obj:*
   obj:*
   fun:_ZN9JavaCalls11call_helperEP9JavaValueP12methodHandleP17JavaCallArgumentsP6Thread
   fun:_ZN9JavaCalls4callEP9JavaValue12methodHandleP17JavaCallArgumentsP6Thread
   fun:_ZN10Reflection6invokeE19instanceKlassHandle12methodHandle6Handleb14objArrayHandle9BasicTypeS3_bP6Thread
   fun:_ZN10Reflection13invoke_methodEP7oopDesc6Handle14objArrayHandleP6Thread
   fun:JVM_InvokeMethod
   obj:*
   obj:*
}
{
   <insert_a_suppression_name_here>
   Memcheck:Cond
   fun:_ZNK8GraphKit9sync_jvmsEv
   fun:_ZN5Parse7do_callEv
   fun:_ZN5Parse15do_one_bytecodeEv
   fun:_ZN5Parse12do_one_blockEv
   fun:_ZN5Parse13do_all_blocksEv
   fun:_ZN5ParseC1EP8JVMStateP8ciMethodf
   fun:_ZN14ParseGenerator8generateEP8JVMState
   fun:_ZN7CompileC1EP5ciEnvP10C2CompilerP8ciMethodibb
   fun:_ZN10C2Compiler14compile_methodEP5ciEnvP8ciMethodi
   fun:_ZN13CompileBroker25invoke_compiler_on_methodEP11CompileTask
   fun:_ZN13CompileBroker20compiler_thread_loopEv
   fun:_ZN10JavaThread17thread_main_innerEv
}
{
   <insert_a_suppression_name_here>
   Memcheck:Cond
   fun:_ZN10InlineTreeC1EP7CompilePKS_P8ciMethodP8JVMStateifi
   fun:_ZN10InlineTree28build_inline_tree_for_calleeEP8ciMethodP8JVMStatei
   fun:_ZN10InlineTree12ok_to_inlineEP8ciMethodP8JVMStateR13ciCallProfileP12WarmCallInfoRb
   fun:_ZN7Compile14call_generatorEP8ciMethodibP8JVMStatebfbb
   fun:_ZN7Compile14call_generatorEP8ciMethodibP8JVMStatebfbb
   fun:_ZN5Parse7do_callEv
   fun:_ZN5Parse15do_one_bytecodeEv
   fun:_ZN5Parse12do_one_blockEv
   fun:_ZN5Parse13do_all_blocksEv
   fun:_ZN5ParseC1EP8JVMStateP8ciMethodf
   fun:_ZN14ParseGenerator8generateEP8JVMState
   fun:_ZN7CompileC1EP5ciEnvP10C2CompilerP8ciMethodibb
}
{
   <insert_a_suppression_name_here>
   Memcheck:Cond
   fun:_ZN8GraphKit29transfer_exceptions_into_jvmsEv
   fun:_ZN25UncommonTrapCallGenerator8generateEP8JVMState
   fun:_ZN22PredictedCallGenerator8generateEP8JVMState
   fun:_ZN5Parse7do_callEv
   fun:_ZN5Parse15do_one_bytecodeEv
   fun:_ZN5Parse12do_one_blockEv
   fun:_ZN5Parse13do_all_blocksEv
   fun:_ZN5ParseC1EP8JVMStateP8ciMethodf
   fun:_ZN14ParseGenerator8generateEP8JVMState
   fun:_ZN7CompileC1EP5ciEnvP10C2CompilerP8ciMethodibb
   fun:_ZN10C2Compiler14compile_methodEP5ciEnvP8ciMethodi
   fun:_ZN13CompileBroker25invoke_compiler_on_methodEP11CompileTask
}
{
   <insert_a_suppression_name_here>
   Memcheck:Cond
   fun:_ZNK8JVMState13clone_shallowEP7Compile
   fun:_ZNK8JVMState10clone_deepEP7Compile
   fun:_ZN8GraphKit19add_safepoint_edgesEP13SafePointNodeb
   fun:_ZN8GraphKit17make_runtime_callEiPK8TypeFuncPhPKcPK7TypePtrP4NodeSA_SA_SA_SA_SA_SA_SA_
   fun:_ZN8GraphKit13uncommon_trapEiP7ciKlassPKcbb
   fun:_ZN8GraphKit17null_check_commonEP4Node9BasicTypebPS1_
   fun:_ZN5Parse15do_one_bytecodeEv
   fun:_ZN5Parse12do_one_blockEv
   fun:_ZN5Parse13do_all_blocksEv
   fun:_ZN5ParseC1EP8JVMStateP8ciMethodf
   fun:_ZN14ParseGenerator8generateEP8JVMState
   fun:_ZN22PredictedCallGenerator8generateEP8JVMState
}
{
   <insert_a_suppression_name_here>
   Memcheck:Addr4
   obj:*
   obj:*
   obj:*
   obj:*
   obj:*
   fun:_ZN9JavaCalls11call_helperEP9JavaValueP12methodHandleP17JavaCallArgumentsP6Thread
   fun:_ZN9JavaCalls4callEP9JavaValue12methodHandleP17JavaCallArgumentsP6Thread
   fun:_ZN9JavaCalls12call_specialEP9JavaValue6Handle11KlassHandleP6SymbolS5_S2_S2_P6Thread
   fun:_ZN10JavaThread18allocate_threadObjE6HandlePcbP6Thread
   fun:attach_current_thread
   fun:jni_DestroyJavaVM
   fun:JavaMain
}
{
   <insert_a_suppression_name_here>
   Memcheck:Leak
   match-leak-kinds: reachable
   fun:malloc
   fun:ParseLocale
   fun:GetJavaProperties
   fun:Java_java_lang_System_initProperties
   obj:*
   obj:*
   obj:*
   fun:_ZN9JavaCalls11call_helperEP9JavaValueP12methodHandleP17JavaCallArgumentsP6Thread
   fun:_ZN9JavaCalls4callEP9JavaValue12methodHandleP17JavaCallArgumentsP6Thread
   fun:_ZN9JavaCalls11call_staticEP9JavaValue11KlassHandleP6SymbolS4_P6Thread
   fun:_ZN7Threads9create_vmEP14JavaVMInitArgsPb
   fun:JNI_CreateJavaVM
}
{
   <insert_a_suppression_name_here>
   Memcheck:Leak
   match-leak-kinds: reachable
   fun:malloc
   fun:_ZN2os6mallocEmtPh
   fun:_ZN9Arguments39init_version_specific_system_propertiesEv
   fun:_ZN7Threads9create_vmEP14JavaVMInitArgsPb
   fun:JNI_CreateJavaVM
   fun:JavaMain
   fun:start_thread
   fun:clone
}
{
   <insert_a_suppression_name_here>
   Memcheck:Leak
   match-leak-kinds: reachable
   fun:malloc
   fun:_ZN2os6mallocEmtPh
   fun:_ZN12SubTasksDoneC1Ej
   fun:_ZN16GenCollectedHeapC1EP18GenCollectorPolicy
   fun:_ZN8Universe15initialize_heapEv
   fun:_Z13universe_initv
   fun:_Z12init_globalsv
   fun:_ZN7Threads9create_vmEP14JavaVMInitArgsPb
   fun:JNI_CreateJavaVM
   fun:JavaMain
   fun:start_thread
   fun:clone
}
{
   <insert_a_suppression_name_here>
   Memcheck:Leak
   match-leak-kinds: reachable
   fun:malloc
   fun:_ZN2os6mallocEmtPh
   fun:_Z12AllocateHeapmtPhN17AllocFailStrategy13AllocFailEnumE
   fun:_ZN12CMSCollectorC1EP29ConcurrentMarkSweepGenerationS1_P11CardTableRSP25ConcurrentMarkSweepPolicy
   fun:_ZN16GenCollectedHeap20create_cms_collectorEv
   fun:_ZN16GenCollectedHeap10initializeEv
   fun:_ZN8Universe15initialize_heapEv
   fun:_Z13universe_initv
   fun:_Z12init_globalsv
   fun:_ZN7Threads9create_vmEP14JavaVMInitArgsPb
   fun:JNI_CreateJavaVM
   fun:JavaMain
}
{
   <insert_a_suppression_name_here>
   Memcheck:Leak
   match-leak-kinds: reachable
   fun:malloc
   fun:strdup
   fun:GetJavaProperties
   fun:Java_java_lang_System_initProperties
   obj:*
   obj:*
   obj:*
   fun:_ZN9JavaCalls11call_helperEP9JavaValueP12methodHandleP17JavaCallArgumentsP6Thread
   fun:_ZN9JavaCalls4callEP9JavaValue12methodHandleP17JavaCallArgumentsP6Thread
   fun:_ZN9JavaCalls11call_staticEP9JavaValue11KlassHandleP6SymbolS4_P6Thread
   fun:_ZN7Threads9create_vmEP14JavaVMInitArgsPb
   fun:JNI_CreateJavaVM
}
{
   <insert_a_suppression_name_here>
   Memcheck:Leak
   match-leak-kinds: reachable
   fun:malloc
   fun:_ZN2os6mallocEmtPh
   fun:_ZN8WorkGang18initialize_workersEv
   fun:_ZN16GenCollectedHeapC1EP18GenCollectorPolicy
   fun:_ZN8Universe15initialize_heapEv
   fun:_Z13universe_initv
   fun:_Z12init_globalsv
   fun:_ZN7Threads9create_vmEP14JavaVMInitArgsPb
   fun:JNI_CreateJavaVM
   fun:JavaMain
   fun:start_thread
   fun:clone
}
{
   <insert_a_suppression_name_here>
   Memcheck:Leak
   match-leak-kinds: reachable
   fun:malloc
   fun:_ZN2os6mallocEmtPh
   fun:_ZN16ParNewGenerationC1E13ReservedSpacemi
   fun:_ZN14GenerationSpec4initE13ReservedSpaceiP9GenRemSet
   fun:_ZN16GenCollectedHeap10initializeEv
   fun:_ZN8Universe15initialize_heapEv
   fun:_Z13universe_initv
   fun:_Z12init_globalsv
   fun:_ZN7Threads9create_vmEP14JavaVMInitArgsPb
   fun:JNI_CreateJavaVM
   fun:JavaMain
   fun:start_thread
}
{
   <insert_a_suppression_name_here>
   Memcheck:Leak
   match-leak-kinds: reachable
   fun:malloc
   fun:_ZN2os6mallocEmtPh
   fun:_Z12AllocateHeapmtPhN17AllocFailStrategy13AllocFailEnumE
   fun:_ZN29ConcurrentMarkSweepGenerationC1E13ReservedSpacemiP11CardTableRSbN19FreeBlockDictionaryI9FreeChunkE16DictionaryChoiceE
   fun:_ZN14GenerationSpec4initE13ReservedSpaceiP9GenRemSet
   fun:_ZN16GenCollectedHeap10initializeEv
   fun:_ZN8Universe15initialize_heapEv
   fun:_Z13universe_initv
   fun:_Z12init_globalsv
   fun:_ZN7Threads9create_vmEP14JavaVMInitArgsPb
   fun:JNI_CreateJavaVM
   fun:JavaMain
}
{
   <insert_a_suppression_name_here>
   Memcheck:Leak
   match-leak-kinds: reachable
   fun:malloc
   fun:_ZN2os6mallocEmtPh
   fun:_Z12AllocateHeapmtPhN17AllocFailStrategy13AllocFailEnumE
   fun:_ZN29ConcurrentMarkSweepGenerationC2E13ReservedSpacemiP11CardTableRSbN19FreeBlockDictionaryI9FreeChunkE16DictionaryChoiceE
   fun:_ZN10CMSPermGenC1E13ReservedSpacemP11CardTableRSN19FreeBlockDictionaryI9FreeChunkE16DictionaryChoiceE
   fun:_ZN23PermanentGenerationSpec4initE13ReservedSpacemP9GenRemSet
   fun:_ZN16GenCollectedHeap10initializeEv
   fun:_ZN8Universe15initialize_heapEv
   fun:_Z13universe_initv
   fun:_Z12init_globalsv
   fun:_ZN7Threads9create_vmEP14JavaVMInitArgsPb
   fun:JNI_CreateJavaVM
}
{
   <insert_a_suppression_name_here>
   Memcheck:Leak
   match-leak-kinds: reachable
   fun:malloc
   fun:_ZN2os6mallocEmtPh
   fun:_ZN8CHeapObjILt1024EEnwEmPh
   fun:_ZN19TemplateInterpreter10initializeEv
   fun:_Z16interpreter_initv
   fun:_Z12init_globalsv
   fun:_ZN7Threads9create_vmEP14JavaVMInitArgsPb
   fun:JNI_CreateJavaVM
   fun:JavaMain
   fun:start_thread
   fun:clone
}
{
   <insert_a_suppression_name_here>
   Memcheck:Leak
   match-leak-kinds: reachable
   fun:malloc
   fun:readCEN
   fun:ZIP_Put_In_Cache0
   fun:ZIP_Open
   fun:_ZN11ClassLoader23create_class_path_entryEPcPK4statbP6Thread
   fun:_ZN18LazyClassPathEntry13resolve_entryEP6Thread
   fun:_ZN18LazyClassPathEntry11open_streamEPKcP6Thread
   fun:_ZN11ClassLoader14load_classfileEP6SymbolP6Thread
   fun:_ZN16SystemDictionary19load_instance_classEP6Symbol6HandleP6Thread
   fun:_ZN16SystemDictionary30resolve_instance_class_or_nullEP6Symbol6HandleS2_P6Thread
   fun:_ZN16SystemDictionary15resolve_or_nullEP6Symbol6HandleS2_P6Thread
   fun:_ZN16SystemDictionary28initialize_preloaded_classesEP6Thread
}
{
   <insert_a_suppression_name_here>
   Memcheck:Leak
   match-leak-kinds: reachable
   fun:malloc
   fun:_ZN2os6mallocEmtPh
   fun:_ZN8CHeapObjILt1280EEnwEmPh
   fun:_ZN18ReferenceProcessor12init_staticsEv
   fun:_Z12init_globalsv
   fun:_ZN7Threads9create_vmEP14JavaVMInitArgsPb
   fun:JNI_CreateJavaVM
   fun:JavaMain
   fun:start_thread
   fun:clone
}
{
   <insert_a_suppression_name_here>
   Memcheck:Leak
   match-leak-kinds: reachable
   fun:malloc
   fun:_ZN2os6mallocEmtPh
   fun:_ZN8CHeapObjILt1024EEnwEmPh
   fun:_Z22InlineCacheBuffer_initv
   fun:_Z12init_globalsv
   fun:_ZN7Threads9create_vmEP14JavaVMInitArgsPb
   fun:JNI_CreateJavaVM
   fun:JavaMain
   fun:start_thread
   fun:clone
}
{
   <insert_a_suppression_name_here>
   Memcheck:Leak
   match-leak-kinds: reachable
   fun:malloc
   fun:readCEN
   fun:ZIP_Put_In_Cache0
   fun:ZIP_Open
   fun:_ZN11ClassLoader23create_class_path_entryEPcPK4statbP6Thread
   fun:_ZN18LazyClassPathEntry13resolve_entryEP6Thread
   fun:_ZN18LazyClassPathEntry11open_streamEPKcP6Thread
   fun:_ZN11ClassLoader14load_classfileEP6SymbolP6Thread
   fun:_ZN16SystemDictionary19load_instance_classEP6Symbol6HandleP6Thread
   fun:_ZN16SystemDictionary30resolve_instance_class_or_nullEP6Symbol6HandleS2_P6Thread
   fun:_ZN16SystemDictionary15resolve_or_nullEP6Symbol6HandleS2_P6Thread
   fun:JVM_FindClassFromBootLoader
}
{
   <insert_a_suppression_name_here>
   Memcheck:Leak
   match-leak-kinds: definite
   fun:malloc
   fun:_ZN2os6mallocEmtPh
   fun:_ZN8CHeapObjILt1792EEnwEmPh
   fun:_ZN11StatSampler23create_sampled_perfdataEv
   fun:_ZN11StatSampler20create_misc_perfdataEv
   fun:_ZN11StatSampler10initializeEv
   fun:_ZN11StatSampler6engageEv
   fun:_ZN7Threads9create_vmEP14JavaVMInitArgsPb
   fun:JNI_CreateJavaVM
   fun:JavaMain
   fun:start_thread
   fun:clone
}
{
   <insert_a_suppression_name_here>
   Memcheck:Leak
   match-leak-kinds: reachable
   fun:malloc
   fun:_ZN2os6mallocEmtPh
   fun:_ZN9Arguments22init_system_propertiesEv
   fun:_ZN7Threads9create_vmEP14JavaVMInitArgsPb
   fun:JNI_CreateJavaVM
   fun:JavaMain
   fun:start_thread
   fun:clone
}
{
   <insert_a_suppression_name_here>
   Memcheck:Leak
   match-leak-kinds: reachable
   fun:malloc
   fun:_ZN2os6mallocEmtPh
   fun:_ZN2os5Linux15libpthread_initEv
   fun:_ZN2os6init_2Ev
   fun:_ZN7Threads9create_vmEP14JavaVMInitArgsPb
   fun:JNI_CreateJavaVM
   fun:JavaMain
   fun:start_thread
   fun:clone
}
{
   <insert_a_suppression_name_here>
   Memcheck:Leak
   match-leak-kinds: possible
   fun:malloc
   fun:_ZN2os6mallocEmtPh
   fun:_Z12AllocateHeapmtPhN17AllocFailStrategy13AllocFailEnumE
   fun:_ZN11ClassLoader11add_packageEPKciP6Thread
   fun:_ZN11ClassLoader14load_classfileEP6SymbolP6Thread
   fun:_ZN16SystemDictionary19load_instance_classEP6Symbol6HandleP6Thread
   fun:_ZN16SystemDictionary30resolve_instance_class_or_nullEP6Symbol6HandleS2_P6Thread
   fun:_ZN16SystemDictionary15resolve_or_nullEP6Symbol6HandleS2_P6Thread
   fun:_ZN16SystemDictionary27initialize_wk_klasses_untilENS_4WKIDERS0_P6Thread
   fun:_ZN16SystemDictionary28initialize_preloaded_classesEP6Thread
   fun:_ZN8Universe7genesisEP6Thread
   fun:_Z14universe2_initv
}
{
   <insert_a_suppression_name_here>
   Memcheck:Leak
   match-leak-kinds: reachable
   fun:malloc
   fun:_Znwm
   fun:_Znam
   fun:_ZN11CardTableRSC1E9MemRegioni
   fun:_ZN15CollectorPolicy14create_rem_setE9MemRegioni
   fun:_ZN16GenCollectedHeap10initializeEv
   fun:_ZN8Universe15initialize_heapEv
   fun:_Z13universe_initv
   fun:_Z12init_globalsv
   fun:_ZN7Threads9create_vmEP14JavaVMInitArgsPb
   fun:JNI_CreateJavaVM
   fun:JavaMain
}
{
   <insert_a_suppression_name_here>
   Memcheck:Leak
   match-leak-kinds: possible
   fun:malloc
   fun:_ZN2os6mallocEmtPh
   fun:_Z12AllocateHeapmtPhN17AllocFailStrategy13AllocFailEnumE
   fun:_ZN11ClassLoader11add_packageEPKciP6Thread
   fun:_ZN11ClassLoader14load_classfileEP6SymbolP6Thread
   fun:_ZN16SystemDictionary19load_instance_classEP6Symbol6HandleP6Thread
   fun:_ZN16SystemDictionary30resolve_instance_class_or_nullEP6Symbol6HandleS2_P6Thread
   fun:_ZN16SystemDictionary15resolve_or_nullEP6Symbol6HandleS2_P6Thread
   fun:_ZN16SystemDictionary28initialize_preloaded_classesEP6Thread
   fun:_ZN8Universe7genesisEP6Thread
   fun:_Z14universe2_initv
   fun:_Z12init_globalsv
}
{
   <insert_a_suppression_name_here>
   Memcheck:Leak
   match-leak-kinds: reachable
   fun:malloc
   fun:_ZN2os6mallocEmtPh
   fun:_ZN17CollectorCountersC1EPKci
   fun:_ZN16DefNewGenerationC2E13ReservedSpacemiPKc
   fun:_ZN16ParNewGenerationC1E13ReservedSpacemi
   fun:_ZN14GenerationSpec4initE13ReservedSpaceiP9GenRemSet
   fun:_ZN16GenCollectedHeap10initializeEv
   fun:_ZN8Universe15initialize_heapEv
   fun:_Z13universe_initv
   fun:_Z12init_globalsv
   fun:_ZN7Threads9create_vmEP14JavaVMInitArgsPb
   fun:JNI_CreateJavaVM
}
{
   <insert_a_suppression_name_here>
   Memcheck:Leak
   match-leak-kinds: reachable
   fun:malloc
   fun:_ZN2os6mallocEmtPh
   fun:_ZN17CollectorCountersC1EPKci
   fun:_ZN12CMSCollectorC1EP29ConcurrentMarkSweepGenerationS1_P11CardTableRSP25ConcurrentMarkSweepPolicy
   fun:_ZN16GenCollectedHeap20create_cms_collectorEv
   fun:_ZN16GenCollectedHeap10initializeEv
   fun:_ZN8Universe15initialize_heapEv
   fun:_Z13universe_initv
   fun:_Z12init_globalsv
   fun:_ZN7Threads9create_vmEP14JavaVMInitArgsPb
   fun:JNI_CreateJavaVM
   fun:JavaMain
}
{
   <insert_a_suppression_name_here>
   Memcheck:Leak
   match-leak-kinds: possible
   fun:malloc
   fun:_ZN2os6mallocEmtPh
   fun:_Z12AllocateHeapmtPhN17AllocFailStrategy13AllocFailEnumE
   fun:_ZN11ClassLoader11add_packageEPKciP6Thread
   fun:_ZN11ClassLoader14load_classfileEP6SymbolP6Thread
   fun:_ZN16SystemDictionary19load_instance_classEP6Symbol6HandleP6Thread
   fun:_ZN16SystemDictionary30resolve_instance_class_or_nullEP6Symbol6HandleS2_P6Thread
   fun:_ZN16SystemDictionary15resolve_or_nullEP6Symbol6HandleS2_P6Thread
   fun:_ZN16SystemDictionary15resolve_or_failEP6Symbol6HandleS2_bP6Thread
   fun:_Z28find_class_from_class_loaderP7JNIEnv_P6Symbolh6HandleS3_hP6Thread
   fun:lookupDirectBufferClasses
   fun:_ZL29initializeDirectBufferSupportP7JNIEnv_P10JavaThread
}
{
   <insert_a_suppression_name_here>
   Memcheck:Leak
   match-leak-kinds: reachable
   fun:malloc
   fun:strdup
   fun:_ZN9Arguments36process_sun_java_launcher_propertiesEP14JavaVMInitArgs
   fun:_ZN7Threads9create_vmEP14JavaVMInitArgsPb
   fun:JNI_CreateJavaVM
   fun:JavaMain
   fun:start_thread
   fun:clone
}
{
   <insert_a_suppression_name_here>
   Memcheck:Leak
   match-leak-kinds: reachable
   fun:malloc
   fun:_ZN2os6mallocEmtPh
   fun:_ZN18GenerationCounters10initializeEPKciimmm
   fun:_ZN18GenerationCountersC1EPKciiP12VirtualSpace
   fun:_ZN16DefNewGenerationC2E13ReservedSpacemiPKc
   fun:_ZN16ParNewGenerationC1E13ReservedSpacemi
   fun:_ZN14GenerationSpec4initE13ReservedSpaceiP9GenRemSet
   fun:_ZN16GenCollectedHeap10initializeEv
   fun:_ZN8Universe15initialize_heapEv
   fun:_Z13universe_initv
   fun:_Z12init_globalsv
   fun:_ZN7Threads9create_vmEP14JavaVMInitArgsPb
}
{
   <insert_a_suppression_name_here>
   Memcheck:Leak
   match-leak-kinds: reachable
   fun:malloc
   fun:_ZN2os6mallocEmtPh
   fun:_ZN18GenerationCounters10initializeEPKciimmm
   fun:_ZN18GenerationCountersC1EPKciiP12VirtualSpace
   fun:_ZN29ConcurrentMarkSweepGeneration31initialize_performance_countersEv
   fun:_ZN14GenerationSpec4initE13ReservedSpaceiP9GenRemSet
   fun:_ZN16GenCollectedHeap10initializeEv
   fun:_ZN8Universe15initialize_heapEv
   fun:_Z13universe_initv
   fun:_Z12init_globalsv
   fun:_ZN7Threads9create_vmEP14JavaVMInitArgsPb
   fun:JNI_CreateJavaVM
}
{
   <insert_a_suppression_name_here>
   Memcheck:Leak
   match-leak-kinds: reachable
   fun:malloc
   fun:_ZN2os6mallocEmtPh
   fun:_ZN18GenerationCounters10initializeEPKciimmm
   fun:_ZN18GenerationCountersC1EPKciiP12VirtualSpace
   fun:_ZN10CMSPermGenC1E13ReservedSpacemP11CardTableRSN19FreeBlockDictionaryI9FreeChunkE16DictionaryChoiceE
   fun:_ZN23PermanentGenerationSpec4initE13ReservedSpacemP9GenRemSet
   fun:_ZN16GenCollectedHeap10initializeEv
   fun:_ZN8Universe15initialize_heapEv
   fun:_Z13universe_initv
   fun:_Z12init_globalsv
   fun:_ZN7Threads9create_vmEP14JavaVMInitArgsPb
   fun:JNI_CreateJavaVM
}
{
   <insert_a_suppression_name_here>
   Memcheck:Leak
   match-leak-kinds: reachable
   fun:malloc
   fun:_ZN2os6mallocEmtPh
   fun:_Z12AllocateHeapmtPhN17AllocFailStrategy13AllocFailEnumE
   fun:_ZN11ClassLoader11add_packageEPKciP6Thread
   fun:_ZN11ClassLoader14load_classfileEP6SymbolP6Thread
   fun:_ZN16SystemDictionary19load_instance_classEP6Symbol6HandleP6Thread
   fun:_ZN16SystemDictionary30resolve_instance_class_or_nullEP6Symbol6HandleS2_P6Thread
   fun:_ZN16SystemDictionary15resolve_or_nullEP6Symbol6HandleS2_P6Thread
   fun:_ZN16SystemDictionary15resolve_or_failEP6Symbol6HandleS2_bP6Thread
   fun:_Z28find_class_from_class_loaderP7JNIEnv_P6Symbolh6HandleS3_hP6Thread
   fun:JVM_FindClassFromCaller
   fun:Java_java_lang_Class_forName0
}
{
   <insert_a_suppression_name_here>
   Memcheck:Leak
   match-leak-kinds: possible
   fun:malloc
   fun:_ZN2os6mallocEmtPh
   fun:_Z12AllocateHeapmtPhN17AllocFailStrategy13AllocFailEnumE
   fun:_ZN11ClassLoader11add_packageEPKciP6Thread
   fun:_ZN11ClassLoader14load_classfileEP6SymbolP6Thread
   fun:_ZN16SystemDictionary19load_instance_classEP6Symbol6HandleP6Thread
   fun:_ZN16SystemDictionary30resolve_instance_class_or_nullEP6Symbol6HandleS2_P6Thread
   fun:_ZN16SystemDictionary15resolve_or_nullEP6Symbol6HandleS2_P6Thread
   fun:JVM_FindClassFromBootLoader
   fun:GetLauncherHelperClass
   fun:JavaMain
   fun:start_thread
}
{
   <insert_a_suppression_name_here>
   Memcheck:Leak
   match-leak-kinds: reachable
   fun:malloc
   fun:_ZN2os6mallocEmtPh
   fun:_ZN11ResourceObjnwEmNS_15allocation_typeEt
   fun:_GLOBAL__I_c1_LinearScan.cpp
   obj:/usr/java/jdk1.7.0_80/jre/lib/amd64/server/libjvm.so
   obj:/usr/java/jdk1.7.0_80/jre/lib/amd64/server/libjvm.so
   obj:*
   fun:call_init
   fun:_dl_init
   fun:dl_open_worker
   fun:_dl_catch_exception
   fun:_dl_open
   fun:dlopen_doit
}
{
   <insert_a_suppression_name_here>
   Memcheck:Leak
   match-leak-kinds: reachable
   fun:malloc
   fun:_ZN2os6mallocEmtPh
   fun:_ZN8CHeapObjILt256EEnwEmPh
   fun:_ZN11ClassLoader16setup_meta_indexEv
   fun:_ZN11ClassLoader10initializeEv
   fun:_Z12init_globalsv
   fun:_ZN7Threads9create_vmEP14JavaVMInitArgsPb
   fun:JNI_CreateJavaVM
   fun:JavaMain
   fun:start_thread
   fun:clone
}
{
   <insert_a_suppression_name_here>
   Memcheck:Leak
   match-leak-kinds: reachable
   fun:malloc
   fun:_Znwm
   fun:_Znam
   fun:_ZN25ConcurrentMarkSweepPolicy22initialize_generationsEv
   fun:_ZN8Universe15initialize_heapEv
   fun:_Z13universe_initv
   fun:_Z12init_globalsv
   fun:_ZN7Threads9create_vmEP14JavaVMInitArgsPb
   fun:JNI_CreateJavaVM
   fun:JavaMain
   fun:start_thread
   fun:clone
}
{
   <insert_a_suppression_name_here>
   Memcheck:Leak
   match-leak-kinds: reachable
   fun:malloc
   fun:_ZN2os6mallocEmtPh
   fun:_ZN17CardTableModRefBSC2E9MemRegioni
   fun:_ZN11CardTableRSC1E9MemRegioni
   fun:_ZN15CollectorPolicy14create_rem_setE9MemRegioni
   fun:_ZN16GenCollectedHeap10initializeEv
   fun:_ZN8Universe15initialize_heapEv
   fun:_Z13universe_initv
   fun:_Z12init_globalsv
   fun:_ZN7Threads9create_vmEP14JavaVMInitArgsPb
   fun:JNI_CreateJavaVM
   fun:JavaMain
}
{
   <insert_a_suppression_name_here>
   Memcheck:Leak
   match-leak-kinds: reachable
   fun:malloc
   fun:_ZN2os6mallocEmtPh
   fun:_ZN8CHeapObjILt1280EEnwEmPh
   fun:_ZN29ConcurrentMarkSweepGenerationC1E13ReservedSpacemiP11CardTableRSbN19FreeBlockDictionaryI9FreeChunkE16DictionaryChoiceE
   fun:_ZN14GenerationSpec4initE13ReservedSpaceiP9GenRemSet
   fun:_ZN16GenCollectedHeap10initializeEv
   fun:_ZN8Universe15initialize_heapEv
   fun:_Z13universe_initv
   fun:_Z12init_globalsv
   fun:_ZN7Threads9create_vmEP14JavaVMInitArgsPb
   fun:JNI_CreateJavaVM
   fun:JavaMain
}
{
   <insert_a_suppression_name_here>
   Memcheck:Leak
   match-leak-kinds: reachable
   fun:malloc
   fun:_ZN2os6mallocEmtPh
   fun:_ZN8CHeapObjILt1280EEnwEmPh
   fun:_ZN29ConcurrentMarkSweepGenerationC2E13ReservedSpacemiP11CardTableRSbN19FreeBlockDictionaryI9FreeChunkE16DictionaryChoiceE
   fun:_ZN10CMSPermGenC1E13ReservedSpacemP11CardTableRSN19FreeBlockDictionaryI9FreeChunkE16DictionaryChoiceE
   fun:_ZN23PermanentGenerationSpec4initE13ReservedSpacemP9GenRemSet
   fun:_ZN16GenCollectedHeap10initializeEv
   fun:_ZN8Universe15initialize_heapEv
   fun:_Z13universe_initv
   fun:_Z12init_globalsv
   fun:_ZN7Threads9create_vmEP14JavaVMInitArgsPb
   fun:JNI_CreateJavaVM
}
{
   <insert_a_suppression_name_here>
   Memcheck:Leak
   match-leak-kinds: reachable
   fun:malloc
   fun:_ZN2os6mallocEmtPh
   fun:_ZN8CHeapObjILt256EEnwEmPh
   fun:_Z13universe_initv
   fun:_Z12init_globalsv
   fun:_ZN7Threads9create_vmEP14JavaVMInitArgsPb
   fun:JNI_CreateJavaVM
   fun:JavaMain
   fun:start_thread
   fun:clone
}
{
   <insert_a_suppression_name_here>
   Memcheck:Leak
   match-leak-kinds: reachable
   fun:calloc
   fun:readCEN
   fun:ZIP_Put_In_Cache0
   fun:ZIP_Open
   fun:_ZN11ClassLoader23create_class_path_entryEPcPK4statbP6Thread
   fun:_ZN18LazyClassPathEntry13resolve_entryEP6Thread
   fun:_ZN18LazyClassPathEntry11open_streamEPKcP6Thread
   fun:_ZN11ClassLoader14load_classfileEP6SymbolP6Thread
   fun:_ZN16SystemDictionary19load_instance_classEP6Symbol6HandleP6Thread
   fun:_ZN16SystemDictionary30resolve_instance_class_or_nullEP6Symbol6HandleS2_P6Thread
   fun:_ZN16SystemDictionary15resolve_or_nullEP6Symbol6HandleS2_P6Thread
   fun:_ZN16SystemDictionary28initialize_preloaded_classesEP6Thread
}
{
   <insert_a_suppression_name_here>
   Memcheck:Leak
   match-leak-kinds: reachable
   fun:malloc
   fun:_ZN2os6mallocEmtPh
   fun:_ZN8CHeapObjILt1536EEnwEmPh
   fun:_Z22compilationPolicy_initv
   fun:_Z12init_globalsv
   fun:_ZN7Threads9create_vmEP14JavaVMInitArgsPb
   fun:JNI_CreateJavaVM
   fun:JavaMain
   fun:start_thread
   fun:clone
}
{
   <insert_a_suppression_name_here>
   Memcheck:Leak
   match-leak-kinds: reachable
   fun:malloc
   fun:_Znwm
   fun:_ZN17FilteredFieldsMap10initializeEv
   fun:_Z12init_globalsv
   fun:_ZN7Threads9create_vmEP14JavaVMInitArgsPb
   fun:JNI_CreateJavaVM
   fun:JavaMain
   fun:start_thread
   fun:clone
}
{
   <insert_a_suppression_name_here>
   Memcheck:Leak
   match-leak-kinds: reachable
   fun:malloc
   fun:_ZN2os6mallocEmtPh
   fun:_ZN8CHeapObjILt1792EEnwEmPh
   fun:_ZN5Chunk29start_chunk_pool_cleaner_taskEv
   fun:_ZN7Threads9create_vmEP14JavaVMInitArgsPb
   fun:JNI_CreateJavaVM
   fun:JavaMain
   fun:start_thread
   fun:clone
}
{
   <insert_a_suppression_name_here>
   Memcheck:Leak
   match-leak-kinds: reachable
   fun:malloc
   fun:_ZN2os6mallocEmtPh
   fun:_ZN8CHeapObjILt1536EEnwEmPh
   fun:_ZN13CompileBroker16compilation_initEv
   fun:_ZN7Threads9create_vmEP14JavaVMInitArgsPb
   fun:JNI_CreateJavaVM
   fun:JavaMain
   fun:start_thread
   fun:clone
}
{
   <insert_a_suppression_name_here>
   Memcheck:Leak
   match-leak-kinds: reachable
   fun:malloc
   fun:_ZN2os6mallocEmtPh
   fun:_ZN20GenericGrowableArray12raw_allocateEi
   fun:_ZN13CompileBroker21init_compiler_threadsEii
   fun:_ZN13CompileBroker16compilation_initEv
   fun:_ZN7Threads9create_vmEP14JavaVMInitArgsPb
   fun:JNI_CreateJavaVM
   fun:JavaMain
   fun:start_thread
   fun:clone
}
{
   <insert_a_suppression_name_here>
   Memcheck:Leak
   match-leak-kinds: reachable
   fun:malloc
   fun:_ZN2os6mallocEmtPh
   fun:_Z12AllocateHeapmtPhN17AllocFailStrategy13AllocFailEnumE
   fun:_ZN21LoaderConstraintTable9add_entryEP6SymbolP12klassOopDesc6HandleS3_S4_
   fun:_ZN16SystemDictionary21add_loader_constraintEP6Symbol6HandleS2_P6Thread
   fun:_ZN16SystemDictionary23check_signature_loadersEP6Symbol6HandleS2_bP6Thread
   fun:_ZN12LinkResolver14resolve_methodER12methodHandle11KlassHandleP6SymbolS4_S2_bP6Thread
   fun:_ZN12LinkResolver30linktime_resolve_static_methodER12methodHandle11KlassHandleP6SymbolS4_S2_bP6Thread
   fun:_ZN12LinkResolver19resolve_static_callER8CallInfoR11KlassHandleP6SymbolS5_S2_bbP6Thread
   fun:_ZN12LinkResolver20resolve_invokestaticER8CallInfo18constantPoolHandleiP6Thread
   fun:_ZN18InterpreterRuntime14resolve_invokeEP10JavaThreadN9Bytecodes4CodeE
   obj:*
}
{
   <insert_a_suppression_name_here>
   Memcheck:Leak
   match-leak-kinds: reachable
   fun:malloc
   fun:_ZN2os6mallocEmtPh
   fun:_ZN8CHeapObjILt256EEnwEmPh
   fun:_ZN10Dictionary21add_protection_domainEij19instanceKlassHandle6HandleS1_P6Thread
   fun:_ZN16SystemDictionary26validate_protection_domainE19instanceKlassHandle6HandleS1_P6Thread
   fun:_ZN16SystemDictionary30resolve_instance_class_or_nullEP6Symbol6HandleS2_P6Thread
   fun:_ZN16SystemDictionary15resolve_or_nullEP6Symbol6HandleS2_P6Thread
   fun:_ZN16SystemDictionary15resolve_or_failEP6Symbol6HandleS2_bP6Thread
   fun:_ZN19constantPoolOopDesc13klass_at_implE18constantPoolHandleiP6Thread
   fun:_ZN18InterpreterRuntime4_newEP10JavaThreadP19constantPoolOopDesci
   obj:*
   obj:*
}
{
   <insert_a_suppression_name_here>
   Memcheck:Leak
   match-leak-kinds: reachable
   fun:malloc
   fun:_ZN2os6mallocEmtPh
   fun:_Z12AllocateHeapmtPhN17AllocFailStrategy13AllocFailEnumE
   fun:_ZN21LoaderConstraintTable9add_entryEP6SymbolP12klassOopDesc6HandleS3_S4_
   fun:_ZN16SystemDictionary21add_loader_constraintEP6Symbol6HandleS2_P6Thread
   fun:_ZN16SystemDictionary23check_signature_loadersEP6Symbol6HandleS2_bP6Thread
   fun:_ZN12LinkResolver24resolve_interface_methodER12methodHandle11KlassHandleP6SymbolS4_S2_bP6Thread
   fun:_ZN12LinkResolver23resolve_invokeinterfaceER8CallInfo6Handle18constantPoolHandleiP6Thread
   fun:_ZN18InterpreterRuntime14resolve_invokeEP10JavaThreadN9Bytecodes4CodeE
   obj:*
   obj:*
   obj:*
}
{
   <insert_a_suppression_name_here>
   Memcheck:Leak
   match-leak-kinds: reachable
   fun:malloc
   fun:_ZN2os6mallocEmtPh
   fun:_ZN8CHeapObjILt256EEnwEmPh
   fun:_ZN10Dictionary21add_protection_domainEij19instanceKlassHandle6HandleS1_P6Thread
   fun:_ZN16SystemDictionary26validate_protection_domainE19instanceKlassHandle6HandleS1_P6Thread
   fun:_ZN16SystemDictionary30resolve_instance_class_or_nullEP6Symbol6HandleS2_P6Thread
   fun:_ZN16SystemDictionary15resolve_or_nullEP6Symbol6HandleS2_P6Thread
   fun:_ZN16SystemDictionary15resolve_or_failEP6Symbol6HandleS2_bP6Thread
   fun:_ZNK16VerificationType28is_reference_assignable_fromERKS_P13ClassVerifierP6Thread
   fun:_ZN13StackMapFrame9pop_stackE16VerificationTypeP6Thread
   fun:_ZN13ClassVerifier25verify_field_instructionsEP17RawBytecodeStreamP13StackMapFrame18constantPoolHandleP6Thread
   fun:_ZN13ClassVerifier13verify_methodE12methodHandleP6Thread
}
{
   <insert_a_suppression_name_here>
   Memcheck:Leak
   match-leak-kinds: reachable
   fun:malloc
   fun:_ZN2os6mallocEmtPh
   fun:_Z12AllocateHeapmtPhN17AllocFailStrategy13AllocFailEnumE
   fun:_ZN21LoaderConstraintTable9add_entryEP6SymbolP12klassOopDesc6HandleS3_S4_
   fun:_ZN16SystemDictionary21add_loader_constraintEP6Symbol6HandleS2_P6Thread
   fun:_ZN16SystemDictionary23check_signature_loadersEP6Symbol6HandleS2_bP6Thread
   fun:_ZN12LinkResolver14resolve_methodER12methodHandle11KlassHandleP6SymbolS4_S2_bP6Thread
   fun:_ZN12LinkResolver31linktime_resolve_special_methodER12methodHandle11KlassHandleP6SymbolS4_S2_bP6Thread
   fun:_ZN12LinkResolver20resolve_special_callER8CallInfo11KlassHandleP6SymbolS4_S2_bP6Thread
   fun:_ZN12LinkResolver21resolve_invokespecialER8CallInfo18constantPoolHandleiP6Thread
   fun:_ZN18InterpreterRuntime14resolve_invokeEP10JavaThreadN9Bytecodes4CodeE
   obj:*
}
{
   <insert_a_suppression_name_here>
   Memcheck:Leak
   match-leak-kinds: reachable
   fun:calloc
   fun:readCEN
   fun:ZIP_Put_In_Cache0
   fun:ZIP_Open
   fun:_ZN11ClassLoader23create_class_path_entryEPcPK4statbP6Thread
   fun:_ZN18LazyClassPathEntry13resolve_entryEP6Thread
   fun:_ZN18LazyClassPathEntry11open_streamEPKcP6Thread
   fun:_ZN11ClassLoader14load_classfileEP6SymbolP6Thread
   fun:_ZN16SystemDictionary19load_instance_classEP6Symbol6HandleP6Thread
   fun:_ZN16SystemDictionary30resolve_instance_class_or_nullEP6Symbol6HandleS2_P6Thread
   fun:_ZN16SystemDictionary15resolve_or_nullEP6Symbol6HandleS2_P6Thread
   fun:JVM_FindClassFromBootLoader
}
{
   <insert_a_suppression_name_here>
   Memcheck:Leak
   match-leak-kinds: reachable
   fun:malloc
   fun:_ZN2os6mallocEmtPh
   fun:_ZN8CHeapObjILt256EEnwEmPh
   fun:_ZN10Dictionary21add_protection_domainEij19instanceKlassHandle6HandleS1_P6Thread
   fun:_ZN16SystemDictionary26validate_protection_domainE19instanceKlassHandle6HandleS1_P6Thread
   fun:_ZN16SystemDictionary30resolve_instance_class_or_nullEP6Symbol6HandleS2_P6Thread
   fun:_ZN16SystemDictionary15resolve_or_nullEP6Symbol6HandleS2_P6Thread
   fun:_ZN16SystemDictionary15resolve_or_failEP6Symbol6HandleS2_bP6Thread
   fun:_Z28find_class_from_class_loaderP7JNIEnv_P6Symbolh6HandleS3_hP6Thread
   fun:JVM_FindClassFromClass
   fun:make_class_info_from_name
   fun:cp_index_to_class_fullinfo
}
{
   <insert_a_suppression_name_here>
   Memcheck:Leak
   match-leak-kinds: reachable
   fun:malloc
   fun:_ZN2os6mallocEmtPh
   fun:_ZN8CHeapObjILt256EEnwEmPh
   fun:_ZN10Dictionary21add_protection_domainEij19instanceKlassHandle6HandleS1_P6Thread
   fun:_ZN16SystemDictionary26validate_protection_domainE19instanceKlassHandle6HandleS1_P6Thread
   fun:_ZN16SystemDictionary30resolve_instance_class_or_nullEP6Symbol6HandleS2_P6Thread
   fun:_ZN16SystemDictionary15resolve_or_nullEP6Symbol6HandleS2_P6Thread
   fun:_ZN16SystemDictionary15resolve_or_failEP6Symbol6HandleS2_bP6Thread
   fun:_Z25get_mirror_from_signature12methodHandleP15SignatureStreamP6Thread
   fun:_ZN10Reflection19get_parameter_typesE12methodHandleiPP7oopDescP6Thread
   fun:_ZN10Reflection15new_constructorE12methodHandleP6Thread
   fun:JVM_GetClassDeclaredConstructors
}
{
   <insert_a_suppression_name_here>
   Memcheck:Leak
   match-leak-kinds: possible
   fun:malloc
   fun:_ZN2os6mallocEmtPh
   fun:_ZN8CHeapObjILt256EEnwEmPh
   fun:_ZN10Dictionary21add_protection_domainEij19instanceKlassHandle6HandleS1_P6Thread
   fun:_ZN16SystemDictionary26validate_protection_domainE19instanceKlassHandle6HandleS1_P6Thread
   fun:_ZN16SystemDictionary30resolve_instance_class_or_nullEP6Symbol6HandleS2_P6Thread
   fun:_ZN16SystemDictionary15resolve_or_nullEP6Symbol6HandleS2_P6Thread
   fun:_ZN16SystemDictionary15resolve_or_failEP6Symbol6HandleS2_bP6Thread
   fun:_ZNK16VerificationType28is_reference_assignable_fromERKS_P13ClassVerifierP6Thread
   fun:_ZN13ClassVerifier30verify_exception_handler_tableEjPcRiS1_P6Thread
   fun:_ZN13ClassVerifier13verify_methodE12methodHandleP6Thread
   fun:_ZN13ClassVerifier12verify_classEP6Thread
}
{
   <insert_a_suppression_name_here>
   Memcheck:Leak
   match-leak-kinds: possible
   fun:malloc
   fun:_ZN2os6mallocEmtPh
   fun:_ZN8CHeapObjILt256EEnwEmPh
   fun:_ZN10Dictionary21add_protection_domainEij19instanceKlassHandle6HandleS1_P6Thread
   fun:_ZN16SystemDictionary26validate_protection_domainE19instanceKlassHandle6HandleS1_P6Thread
   fun:_ZN16SystemDictionary30resolve_instance_class_or_nullEP6Symbol6HandleS2_P6Thread
   fun:_ZN16SystemDictionary15resolve_or_nullEP6Symbol6HandleS2_P6Thread
   fun:_ZN16SystemDictionary15resolve_or_failEP6Symbol6HandleS2_bP6Thread
   fun:_ZNK16VerificationType28is_reference_assignable_fromERKS_P13ClassVerifierP6Thread
   fun:_ZN13StackMapFrame9pop_stackE16VerificationTypeP6Thread
   fun:_ZN13ClassVerifier13verify_methodE12methodHandleP6Thread
   fun:_ZN13ClassVerifier12verify_classEP6Thread
}
{
   <insert_a_suppression_name_here>
   Memcheck:Leak
   match-leak-kinds: possible
   fun:malloc
   fun:_ZN2os6mallocEmtPh
   fun:_ZN8CHeapObjILt256EEnwEmPh
   fun:_ZN10Dictionary21add_protection_domainEij19instanceKlassHandle6HandleS1_P6Thread
   fun:_ZN16SystemDictionary26validate_protection_domainE19instanceKlassHandle6HandleS1_P6Thread
   fun:_ZN16SystemDictionary30resolve_instance_class_or_nullEP6Symbol6HandleS2_P6Thread
   fun:_ZN16SystemDictionary15resolve_or_nullEP6Symbol6HandleS2_P6Thread
   fun:_ZN16SystemDictionary15resolve_or_failEP6Symbol6HandleS2_bP6Thread
   fun:_Z25get_mirror_from_signature12methodHandleP15SignatureStreamP6Thread
   fun:_ZN10Reflection19get_parameter_typesE12methodHandleiPP7oopDescP6Thread
   fun:_ZN10Reflection10new_methodE12methodHandlebbP6Thread
   fun:JVM_GetClassDeclaredMethods
}
{
   <insert_a_suppression_name_here>
   Memcheck:Leak
   match-leak-kinds: possible
   fun:malloc
   fun:_ZN2os6mallocEmtPh
   fun:_ZN8CHeapObjILt256EEnwEmPh
   fun:_ZN10Dictionary21add_protection_domainEij19instanceKlassHandle6HandleS1_P6Thread
   fun:_ZN16SystemDictionary26validate_protection_domainE19instanceKlassHandle6HandleS1_P6Thread
   fun:_ZN16SystemDictionary30resolve_instance_class_or_nullEP6Symbol6HandleS2_P6Thread
   fun:_ZN16SystemDictionary15resolve_or_nullEP6Symbol6HandleS2_P6Thread
   fun:_ZN16SystemDictionary15resolve_or_failEP6Symbol6HandleS2_bP6Thread
   fun:_Z28find_class_from_class_loaderP7JNIEnv_P6Symbolh6HandleS3_hP6Thread
   fun:JVM_FindClassFromCaller
   fun:Java_java_lang_Class_forName0
   obj:*
}
{
   <insert_a_suppression_name_here>
   Memcheck:Leak
   match-leak-kinds: possible
   fun:malloc
   fun:_ZN2os6mallocEmtPh
   fun:_ZN8CHeapObjILt256EEnwEmPh
   fun:_ZN10Dictionary21add_protection_domainEij19instanceKlassHandle6HandleS1_P6Thread
   fun:_ZN16SystemDictionary26validate_protection_domainE19instanceKlassHandle6HandleS1_P6Thread
   fun:_ZN16SystemDictionary30resolve_instance_class_or_nullEP6Symbol6HandleS2_P6Thread
   fun:_ZN16SystemDictionary15resolve_or_nullEP6Symbol6HandleS2_P6Thread
   fun:_ZN16SystemDictionary15resolve_or_failEP6Symbol6HandleS2_bP6Thread
   fun:_ZN19constantPoolOopDesc13klass_at_implE18constantPoolHandleiP6Thread
   fun:_ZN18InterpreterRuntime13quicken_io_ccEP10JavaThread
   obj:*
   obj:*
}
{
   <insert_a_suppression_name_here>
   Memcheck:Leak
   match-leak-kinds: possible
   fun:malloc
   fun:_ZN2os6mallocEmtPh
   fun:_ZN8CHeapObjILt256EEnwEmPh
   fun:_ZN10Dictionary21add_protection_domainEij19instanceKlassHandle6HandleS1_P6Thread
   fun:_ZN16SystemDictionary26validate_protection_domainE19instanceKlassHandle6HandleS1_P6Thread
   fun:_ZN16SystemDictionary30resolve_instance_class_or_nullEP6Symbol6HandleS2_P6Thread
   fun:_ZN16SystemDictionary15resolve_or_nullEP6Symbol6HandleS2_P6Thread
   fun:_ZN16SystemDictionary15resolve_or_failEP6Symbol6HandleS2_bP6Thread
   fun:_ZN19constantPoolOopDesc13klass_at_implE18constantPoolHandleiP6Thread
   fun:_ZN18InterpreterRuntime4_newEP10JavaThreadP19constantPoolOopDesci
   obj:*
   obj:*
}
{
   <insert_a_suppression_name_here>
   Memcheck:Leak
   match-leak-kinds: possible
   fun:malloc
   fun:_ZN2os6mallocEmtPh
   fun:_Z12AllocateHeapmtPhN17AllocFailStrategy13AllocFailEnumE
   fun:_ZN21LoaderConstraintTable9add_entryEP6SymbolP12klassOopDesc6HandleS3_S4_
   fun:_ZN16SystemDictionary21add_loader_constraintEP6Symbol6HandleS2_P6Thread
   fun:_ZN16SystemDictionary23check_signature_loadersEP6Symbol6HandleS2_bP6Thread
   fun:_ZN12LinkResolver14resolve_methodER12methodHandle11KlassHandleP6SymbolS4_S2_bP6Thread
   fun:_ZN12LinkResolver31linktime_resolve_virtual_methodER12methodHandle11KlassHandleP6SymbolS4_S2_bP6Thread
   fun:_ZN12LinkResolver21resolve_invokevirtualER8CallInfo6Handle18constantPoolHandleiP6Thread
   fun:_ZN18InterpreterRuntime14resolve_invokeEP10JavaThreadN9Bytecodes4CodeE
   obj:*
   obj:*
}
{
   <insert_a_suppression_name_here>
   Memcheck:Leak
   match-leak-kinds: possible
   fun:malloc
   fun:_ZN2os6mallocEmtPh
   fun:_ZN8CHeapObjILt256EEnwEmPh
   fun:_ZN10Dictionary21add_protection_domainEij19instanceKlassHandle6HandleS1_P6Thread
   fun:_ZN16SystemDictionary26validate_protection_domainE19instanceKlassHandle6HandleS1_P6Thread
   fun:_ZN16SystemDictionary30resolve_instance_class_or_nullEP6Symbol6HandleS2_P6Thread
   fun:_ZN16SystemDictionary15resolve_or_nullEP6Symbol6HandleS2_P6Thread
   fun:_ZN16SystemDictionary15resolve_or_failEP6Symbol6HandleS2_bP6Thread
   fun:_ZN19constantPoolOopDesc13klass_at_implE18constantPoolHandleiP6Thread
   fun:_ZN12LinkResolver23resolve_invokeinterfaceER8CallInfo6Handle18constantPoolHandleiP6Thread
   fun:_ZN18InterpreterRuntime14resolve_invokeEP10JavaThreadN9Bytecodes4CodeE
   obj:*
}
{
   <insert_a_suppression_name_here>
   Memcheck:Leak
   match-leak-kinds: possible
   fun:malloc
   fun:_ZN2os6mallocEmtPh
   fun:_Z12AllocateHeapmtPhN17AllocFailStrategy13AllocFailEnumE
   fun:_ZN21LoaderConstraintTable9add_entryEP6SymbolP12klassOopDesc6HandleS3_S4_
   fun:_ZN16SystemDictionary21add_loader_constraintEP6Symbol6HandleS2_P6Thread
   fun:_ZN16SystemDictionary23check_signature_loadersEP6Symbol6HandleS2_bP6Thread
   fun:_ZN12LinkResolver24resolve_interface_methodER12methodHandle11KlassHandleP6SymbolS4_S2_bP6Thread
   fun:_ZN12LinkResolver23resolve_invokeinterfaceER8CallInfo6Handle18constantPoolHandleiP6Thread
   fun:_ZN18InterpreterRuntime14resolve_invokeEP10JavaThreadN9Bytecodes4CodeE
   obj:*
   obj:*
   obj:*
}
{
   <insert_a_suppression_name_here>
   Memcheck:Leak
   match-leak-kinds: possible
   fun:malloc
   fun:_ZN2os6mallocEmtPh
   fun:_Z12AllocateHeapmtPhN17AllocFailStrategy13AllocFailEnumE
   fun:_ZN21LoaderConstraintTable9add_entryEP6SymbolP12klassOopDesc6HandleS3_S4_
   fun:_ZN16SystemDictionary21add_loader_constraintEP6Symbol6HandleS2_P6Thread
   fun:_ZN16SystemDictionary23check_signature_loadersEP6Symbol6HandleS2_bP6Thread
   fun:_ZN12LinkResolver13resolve_fieldER15FieldAccessInfo18constantPoolHandleiN9Bytecodes4CodeEbbP6Thread
   fun:_ZN12LinkResolver13resolve_fieldER15FieldAccessInfo18constantPoolHandleiN9Bytecodes4CodeEbP6Thread
   fun:_ZN18InterpreterRuntime15resolve_get_putEP10JavaThreadN9Bytecodes4CodeE
   obj:*
   obj:*
   obj:*
}
{
   <insert_a_suppression_name_here>
   Memcheck:Leak
   match-leak-kinds: possible
   fun:malloc
   fun:_ZN2os6mallocEmtPh
   fun:_Z12AllocateHeapmtPhN17AllocFailStrategy13AllocFailEnumE
   fun:_ZN21LoaderConstraintTable9add_entryEP6SymbolP12klassOopDesc6HandleS3_S4_
   fun:_ZN16SystemDictionary21add_loader_constraintEP6Symbol6HandleS2_P6Thread
   fun:_ZN16SystemDictionary23check_signature_loadersEP6Symbol6HandleS2_bP6Thread
   fun:_ZN12LinkResolver13resolve_fieldER15FieldAccessInfo18constantPoolHandleiN9Bytecodes4CodeEbbP6Thread
   fun:_ZN12LinkResolver13resolve_fieldER15FieldAccessInfo18constantPoolHandleiN9Bytecodes4CodeEbP6Thread
   fun:_ZN18InterpreterRuntime15resolve_get_putEP10JavaThreadN9Bytecodes4CodeE
   obj:*
   obj:*
   fun:_ZN9JavaCalls11call_helperEP9JavaValueP12methodHandleP17JavaCallArgumentsP6Thread
}
{
   <insert_a_suppression_name_here>
   Memcheck:Leak
   match-leak-kinds: definite
   fun:malloc
   fun:_ZN2os6mallocEmtPh
   fun:_ZN8CHeapObjILt1792EEnwEmPh
   fun:_ZN14CSpaceCountersC1EPKcimP15ContiguousSpaceP18GenerationCounters
   fun:_ZN16DefNewGenerationC2E13ReservedSpacemiPKc
   fun:_ZN16ParNewGenerationC1E13ReservedSpacemi
   fun:_ZN14GenerationSpec4initE13ReservedSpaceiP9GenRemSet
   fun:_ZN16GenCollectedHeap10initializeEv
   fun:_ZN8Universe15initialize_heapEv
   fun:_Z13universe_initv
   fun:_Z12init_globalsv
   fun:_ZN7Threads9create_vmEP14JavaVMInitArgsPb
}
{
   <insert_a_suppression_name_here>
   Memcheck:Leak
   match-leak-kinds: definite
   fun:malloc
   fun:_ZN2os6mallocEmtPh
   fun:_ZN8CHeapObjILt1792EEnwEmPh
   fun:_ZN14GSpaceCountersC1EPKcimP10GenerationP18GenerationCountersb
   fun:_ZN29ConcurrentMarkSweepGeneration31initialize_performance_countersEv
   fun:_ZN14GenerationSpec4initE13ReservedSpaceiP9GenRemSet
   fun:_ZN16GenCollectedHeap10initializeEv
   fun:_ZN8Universe15initialize_heapEv
   fun:_Z13universe_initv
   fun:_Z12init_globalsv
   fun:_ZN7Threads9create_vmEP14JavaVMInitArgsPb
   fun:JNI_CreateJavaVM
}
{
   <insert_a_suppression_name_here>
   Memcheck:Leak
   match-leak-kinds: definite
   fun:malloc
   fun:_ZN2os6mallocEmtPh
   fun:_ZN8CHeapObjILt1792EEnwEmPh
   fun:_ZN14GSpaceCountersC1EPKcimP10GenerationP18GenerationCountersb
   fun:_ZN10CMSPermGenC1E13ReservedSpacemP11CardTableRSN19FreeBlockDictionaryI9FreeChunkE16DictionaryChoiceE
   fun:_ZN23PermanentGenerationSpec4initE13ReservedSpacemP9GenRemSet
   fun:_ZN16GenCollectedHeap10initializeEv
   fun:_ZN8Universe15initialize_heapEv
   fun:_Z13universe_initv
   fun:_Z12init_globalsv
   fun:_ZN7Threads9create_vmEP14JavaVMInitArgsPb
   fun:JNI_CreateJavaVM
}
{
   <insert_a_suppression_name_here>
   Memcheck:Leak
   match-leak-kinds: reachable
   fun:malloc
   fun:_ZN2os6mallocEmtPh
   fun:_Z12AllocateHeapmtPhN17AllocFailStrategy13AllocFailEnumE
   fun:_ZN11ClassLoader11add_packageEPKciP6Thread
   fun:_ZN11ClassLoader14load_classfileEP6SymbolP6Thread
   fun:_ZN16SystemDictionary19load_instance_classEP6Symbol6HandleP6Thread
   fun:_ZN16SystemDictionary30resolve_instance_class_or_nullEP6Symbol6HandleS2_P6Thread
   fun:_ZN16SystemDictionary15resolve_or_nullEP6Symbol6HandleS2_P6Thread
   fun:_ZN16SystemDictionary15resolve_or_failEP6Symbol6HandleS2_bP6Thread
   fun:_ZN19constantPoolOopDesc13klass_at_implE18constantPoolHandleiP6Thread
   fun:_ZN18InterpreterRuntime3ldcEP10JavaThreadb
   obj:*
}
{
   <insert_a_suppression_name_here>
   Memcheck:Leak
   match-leak-kinds: possible
   fun:malloc
   fun:_ZN2os6mallocEmtPh
   fun:_Z12AllocateHeapmtPhN17AllocFailStrategy13AllocFailEnumE
   fun:_ZN11ClassLoader11add_packageEPKciP6Thread
   fun:_ZN11ClassLoader14load_classfileEP6SymbolP6Thread
   fun:_ZN16SystemDictionary19load_instance_classEP6Symbol6HandleP6Thread
   fun:_ZN16SystemDictionary30resolve_instance_class_or_nullEP6Symbol6HandleS2_P6Thread
   fun:_ZN16SystemDictionary15resolve_or_nullEP6Symbol6HandleS2_P6Thread
   fun:_ZN16SystemDictionary15resolve_or_failEP6Symbol6HandleS2_bP6Thread
   fun:_Z28find_class_from_class_loaderP7JNIEnv_P6Symbolh6HandleS3_hP6Thread
   fun:jni_FindClass
   fun:JNU_CallStaticMethodByName
}
{
   <insert_a_suppression_name_here>
   Memcheck:Leak
   match-leak-kinds: possible
   fun:malloc
   fun:_ZN2os6mallocEmtPh
   fun:_Z12AllocateHeapmtPhN17AllocFailStrategy13AllocFailEnumE
   fun:_ZN11ClassLoader11add_packageEPKciP6Thread
   fun:_ZN11ClassLoader14load_classfileEP6SymbolP6Thread
   fun:_ZN16SystemDictionary19load_instance_classEP6Symbol6HandleP6Thread
   fun:_ZN16SystemDictionary30resolve_instance_class_or_nullEP6Symbol6HandleS2_P6Thread
   fun:_ZN16SystemDictionary15resolve_or_nullEP6Symbol6HandleS2_P6Thread
   fun:_ZN16SystemDictionary15resolve_or_failEP6Symbol6HandleS2_bP6Thread
   fun:_ZN19constantPoolOopDesc13klass_at_implE18constantPoolHandleiP6Thread
   fun:_ZN12LinkResolver13resolve_fieldER15FieldAccessInfo18constantPoolHandleiN9Bytecodes4CodeEbbP6Thread
   fun:_ZN12LinkResolver13resolve_fieldER15FieldAccessInfo18constantPoolHandleiN9Bytecodes4CodeEbP6Thread
}
{
   <insert_a_suppression_name_here>
   Memcheck:Leak
   match-leak-kinds: reachable
   fun:malloc
   fun:_ZN2os6mallocEmtPh
   fun:_ZN9Arguments23PropertyList_unique_addEPP14SystemPropertyPKcPch
   fun:_ZN9Arguments14set_mode_flagsENS_4ModeE
   fun:_ZN9Arguments18parse_vm_init_argsEPK14JavaVMInitArgs
   fun:_ZN9Arguments5parseEPK14JavaVMInitArgs
   fun:_ZN7Threads9create_vmEP14JavaVMInitArgsPb
   fun:JNI_CreateJavaVM
   fun:JavaMain
   fun:start_thread
   fun:clone
}
{
   <insert_a_suppression_name_here>
   Memcheck:Leak
   match-leak-kinds: reachable
   fun:malloc
   fun:_ZN2os6mallocEmtPh
   fun:_ZN8CHeapObjILt1280EEnwEmPh
   fun:_ZN18AdaptiveSizePolicyC2Emmmdj
   fun:_ZN21CMSAdaptiveSizePolicyC1Emmmddj
   fun:_ZN25ConcurrentMarkSweepPolicy22initialize_size_policyEmmm
   fun:_ZN16GenCollectedHeap15post_initializeEv
   fun:_Z18universe_post_initv
   fun:_Z12init_globalsv
   fun:_ZN7Threads9create_vmEP14JavaVMInitArgsPb
   fun:JNI_CreateJavaVM
   fun:JavaMain
}
{
   <insert_a_suppression_name_here>
   Memcheck:Leak
   match-leak-kinds: reachable
   fun:malloc
   fun:_ZN2os6mallocEmtPh
   fun:_ZN8CHeapObjILt1280EEnwEmPh
   fun:_ZN21CMSAdaptiveSizePolicyC1Emmmddj
   fun:_ZN25ConcurrentMarkSweepPolicy22initialize_size_policyEmmm
   fun:_ZN16GenCollectedHeap15post_initializeEv
   fun:_Z18universe_post_initv
   fun:_Z12init_globalsv
   fun:_ZN7Threads9create_vmEP14JavaVMInitArgsPb
   fun:JNI_CreateJavaVM
   fun:JavaMain
   fun:start_thread
}
{
   <insert_a_suppression_name_here>
   Memcheck:Leak
   match-leak-kinds: possible
   fun:malloc
   fun:_ZN2os6mallocEmtPh
   fun:_Z12AllocateHeapmtPhN17AllocFailStrategy13AllocFailEnumE
   fun:_ZN11ClassLoader11add_packageEPKciP6Thread
   fun:_ZN11ClassLoader14load_classfileEP6SymbolP6Thread
   fun:_ZN16SystemDictionary19load_instance_classEP6Symbol6HandleP6Thread
   fun:_ZN16SystemDictionary30resolve_instance_class_or_nullEP6Symbol6HandleS2_P6Thread
   fun:_ZN16SystemDictionary15resolve_or_nullEP6Symbol6HandleS2_P6Thread
   fun:_ZN16SystemDictionary15resolve_or_failEP6Symbol6HandleS2_bP6Thread
   fun:_ZN19constantPoolOopDesc13klass_at_implE18constantPoolHandleiP6Thread
   fun:_ZN18InterpreterRuntime9anewarrayEP10JavaThreadP19constantPoolOopDescii
   obj:*
}
{
   <insert_a_suppression_name_here>
   Memcheck:Leak
   match-leak-kinds: reachable
   fun:malloc
   fun:_ZN2os6mallocEmtPh
   fun:_ZN14CSpaceCountersC1EPKcimP15ContiguousSpaceP18GenerationCounters
   fun:_ZN16DefNewGenerationC2E13ReservedSpacemiPKc
   fun:_ZN16ParNewGenerationC1E13ReservedSpacemi
   fun:_ZN14GenerationSpec4initE13ReservedSpaceiP9GenRemSet
   fun:_ZN16GenCollectedHeap10initializeEv
   fun:_ZN8Universe15initialize_heapEv
   fun:_Z13universe_initv
   fun:_Z12init_globalsv
   fun:_ZN7Threads9create_vmEP14JavaVMInitArgsPb
   fun:JNI_CreateJavaVM
}
{
   <insert_a_suppression_name_here>
   Memcheck:Leak
   match-leak-kinds: reachable
   fun:malloc
   fun:_ZN2os6mallocEmtPh
   fun:_ZN14GSpaceCountersC1EPKcimP10GenerationP18GenerationCountersb
   fun:_ZN29ConcurrentMarkSweepGeneration31initialize_performance_countersEv
   fun:_ZN14GenerationSpec4initE13ReservedSpaceiP9GenRemSet
   fun:_ZN16GenCollectedHeap10initializeEv
   fun:_ZN8Universe15initialize_heapEv
   fun:_Z13universe_initv
   fun:_Z12init_globalsv
   fun:_ZN7Threads9create_vmEP14JavaVMInitArgsPb
   fun:JNI_CreateJavaVM
   fun:JavaMain
}
{
   <insert_a_suppression_name_here>
   Memcheck:Leak
   match-leak-kinds: reachable
   fun:malloc
   fun:_ZN2os6mallocEmtPh
   fun:_ZN14GSpaceCountersC1EPKcimP10GenerationP18GenerationCountersb
   fun:_ZN10CMSPermGenC1E13ReservedSpacemP11CardTableRSN19FreeBlockDictionaryI9FreeChunkE16DictionaryChoiceE
   fun:_ZN23PermanentGenerationSpec4initE13ReservedSpacemP9GenRemSet
   fun:_ZN16GenCollectedHeap10initializeEv
   fun:_ZN8Universe15initialize_heapEv
   fun:_Z13universe_initv
   fun:_Z12init_globalsv
   fun:_ZN7Threads9create_vmEP14JavaVMInitArgsPb
   fun:JNI_CreateJavaVM
   fun:JavaMain
}
{
   <insert_a_suppression_name_here>
   Memcheck:Leak
   match-leak-kinds: reachable
   fun:malloc
   fun:_ZN2os6mallocEmtPh
   fun:_ZN20GenericGrowableArray12raw_allocateEi
   fun:_GLOBAL__I_reflectionUtils.cpp
   obj:/usr/java/jdk1.7.0_80/jre/lib/amd64/server/libjvm.so
   obj:/usr/java/jdk1.7.0_80/jre/lib/amd64/server/libjvm.so
   obj:*
   fun:call_init
   fun:_dl_init
   fun:dl_open_worker
   fun:_dl_catch_exception
   fun:_dl_open
   fun:dlopen_doit
}
{
   <insert_a_suppression_name_here>
   Memcheck:Leak
   match-leak-kinds: reachable
   fun:malloc
   fun:_ZN2os6mallocEmtPh
   fun:_ZN8CHeapObjILt1792EEnwEmPh
   fun:_ZN14DCmdRegistrant14register_dcmdsEv
   fun:_ZN10Management4initEv
   fun:_Z15management_initv
   fun:_Z12init_globalsv
   fun:_ZN7Threads9create_vmEP14JavaVMInitArgsPb
   fun:JNI_CreateJavaVM
   fun:JavaMain
   fun:start_thread
   fun:clone
}
{
   <insert_a_suppression_name_here>
   Memcheck:Leak
   match-leak-kinds: reachable
   fun:malloc
   fun:_ZN2os6mallocEmtPh
   fun:_ZN8CHeapObjILt1792EEnwEmPh
   fun:_ZN14DCmdRegistrant18register_dcmds_extEv
   fun:_ZN10Management4initEv
   fun:_Z15management_initv
   fun:_Z12init_globalsv
   fun:_ZN7Threads9create_vmEP14JavaVMInitArgsPb
   fun:JNI_CreateJavaVM
   fun:JavaMain
   fun:start_thread
   fun:clone
}
{
   <insert_a_suppression_name_here>
   Memcheck:Leak
   match-leak-kinds: reachable
   fun:malloc
   fun:_ZN2os6mallocEmtPh
   fun:_ZN8CHeapObjILt1792EEnwEmPh
   fun:_ZN10Management4initEv
   fun:_Z15management_initv
   fun:_Z12init_globalsv
   fun:_ZN7Threads9create_vmEP14JavaVMInitArgsPb
   fun:JNI_CreateJavaVM
   fun:JavaMain
   fun:start_thread
   fun:clone
}
{
   <insert_a_suppression_name_here>
   Memcheck:Leak
   match-leak-kinds: reachable
   fun:malloc
   fun:_ZN2os6mallocEmtPh
   fun:_ZN8CHeapObjILt1792EEnwEmPh
   fun:_ZN12CodeHeapPoolC1EP8CodeHeapPKcb
   fun:_ZN13MemoryService25add_code_heap_memory_poolEP8CodeHeap
   fun:_ZN9CodeCache10initializeEv
   fun:_Z12init_globalsv
   fun:_ZN7Threads9create_vmEP14JavaVMInitArgsPb
   fun:JNI_CreateJavaVM
   fun:JavaMain
   fun:start_thread
   fun:clone
}
{
   <insert_a_suppression_name_here>
   Memcheck:Leak
   match-leak-kinds: reachable
   fun:malloc
   fun:_ZN2os6mallocEmtPh
   fun:_ZN8CHeapObjILt1792EEnwEmPh
   fun:_ZN10SharedHeapC2EP15CollectorPolicy
   fun:_ZN16GenCollectedHeapC1EP18GenCollectorPolicy
   fun:_ZN8Universe15initialize_heapEv
   fun:_Z13universe_initv
   fun:_Z12init_globalsv
   fun:_ZN7Threads9create_vmEP14JavaVMInitArgsPb
   fun:JNI_CreateJavaVM
   fun:JavaMain
   fun:start_thread
}
{
   <insert_a_suppression_name_here>
   Memcheck:Leak
   match-leak-kinds: reachable
   fun:malloc
   fun:_ZN2os6mallocEmtPh
   fun:_ZN8CHeapObjILt1792EEnwEmPh
   fun:_ZN16GenCollectedHeapC1EP18GenCollectorPolicy
   fun:_ZN8Universe15initialize_heapEv
   fun:_Z13universe_initv
   fun:_Z12init_globalsv
   fun:_ZN7Threads9create_vmEP14JavaVMInitArgsPb
   fun:JNI_CreateJavaVM
   fun:JavaMain
   fun:start_thread
   fun:clone
}
{
   <insert_a_suppression_name_here>
   Memcheck:Leak
   match-leak-kinds: reachable
   fun:malloc
   fun:_ZN2os6mallocEmtPh
   fun:_ZN8CHeapObjILt1280EEnwEmPh
   fun:_ZN15ContiguousSpaceC2Ev
   fun:_ZN16DefNewGenerationC2E13ReservedSpacemiPKc
   fun:_ZN16ParNewGenerationC1E13ReservedSpacemi
   fun:_ZN14GenerationSpec4initE13ReservedSpaceiP9GenRemSet
   fun:_ZN16GenCollectedHeap10initializeEv
   fun:_ZN8Universe15initialize_heapEv
   fun:_Z13universe_initv
   fun:_Z12init_globalsv
   fun:_ZN7Threads9create_vmEP14JavaVMInitArgsPb
}
{
   <insert_a_suppression_name_here>
   Memcheck:Leak
   match-leak-kinds: reachable
   fun:malloc
   fun:_ZN2os6mallocEmtPh
   fun:_ZN8CHeapObjILt1280EEnwEmPh
   fun:_ZN15ContiguousSpaceC1Ev
   fun:_ZN16DefNewGenerationC2E13ReservedSpacemiPKc
   fun:_ZN16ParNewGenerationC1E13ReservedSpacemi
   fun:_ZN14GenerationSpec4initE13ReservedSpaceiP9GenRemSet
   fun:_ZN16GenCollectedHeap10initializeEv
   fun:_ZN8Universe15initialize_heapEv
   fun:_Z13universe_initv
   fun:_Z12init_globalsv
   fun:_ZN7Threads9create_vmEP14JavaVMInitArgsPb
}
{
   <insert_a_suppression_name_here>
   Memcheck:Leak
   match-leak-kinds: reachable
   fun:malloc
   fun:_ZN2os6mallocEmtPh
   fun:_ZN8CHeapObjILt1280EEnwEmPh
   fun:_ZN16ParNewGenerationC1E13ReservedSpacemi
   fun:_ZN14GenerationSpec4initE13ReservedSpaceiP9GenRemSet
   fun:_ZN16GenCollectedHeap10initializeEv
   fun:_ZN8Universe15initialize_heapEv
   fun:_Z13universe_initv
   fun:_Z12init_globalsv
   fun:_ZN7Threads9create_vmEP14JavaVMInitArgsPb
   fun:JNI_CreateJavaVM
   fun:JavaMain
}
{
   <insert_a_suppression_name_here>
   Memcheck:Leak
   match-leak-kinds: reachable
   fun:malloc
   fun:_ZN2os6mallocEmtPh
   fun:_ZN8CHeapObjILt1280EEnwEmPh
   fun:_ZN23PermanentGenerationSpec4initE13ReservedSpacemP9GenRemSet
   fun:_ZN16GenCollectedHeap10initializeEv
   fun:_ZN8Universe15initialize_heapEv
   fun:_Z13universe_initv
   fun:_Z12init_globalsv
   fun:_ZN7Threads9create_vmEP14JavaVMInitArgsPb
   fun:JNI_CreateJavaVM
   fun:JavaMain
   fun:start_thread
}
{
   <insert_a_suppression_name_here>
   Memcheck:Leak
   match-leak-kinds: reachable
   fun:malloc
   fun:_ZN2os6mallocEmtPh
   fun:_ZN8CHeapObjILt1280EEnwEmPh
   fun:_ZN12CMSCollectorC1EP29ConcurrentMarkSweepGenerationS1_P11CardTableRSP25ConcurrentMarkSweepPolicy
   fun:_ZN16GenCollectedHeap20create_cms_collectorEv
   fun:_ZN16GenCollectedHeap10initializeEv
   fun:_ZN8Universe15initialize_heapEv
   fun:_Z13universe_initv
   fun:_Z12init_globalsv
   fun:_ZN7Threads9create_vmEP14JavaVMInitArgsPb
   fun:JNI_CreateJavaVM
   fun:JavaMain
}
{
   <insert_a_suppression_name_here>
   Memcheck:Leak
   match-leak-kinds: reachable
   fun:malloc
   fun:_ZN2os6mallocEmtPh
   fun:_ZN8CHeapObjILt1024EEnwEmPh
   fun:_ZN21AdapterHandlerLibrary10initializeEv
   fun:_ZN21AdapterHandlerLibrary11get_adapterE12methodHandle
   fun:_ZN13methodOopDesc13make_adaptersE12methodHandleP6Thread
   fun:_ZN8Rewriter17relocate_and_linkE19instanceKlassHandle14objArrayHandleP6Thread
   fun:_ZN13instanceKlass15link_class_implE19instanceKlassHandlebP6Thread
   fun:_ZN13instanceKlass15link_class_implE19instanceKlassHandlebP6Thread
   fun:_ZN13instanceKlass15link_class_implE19instanceKlassHandlebP6Thread
   fun:_ZN13instanceKlass15link_class_implE19instanceKlassHandlebP6Thread
   fun:_ZN13instanceKlass18link_class_or_failEP6Thread
}
{
   <insert_a_suppression_name_here>
   Memcheck:Leak
   match-leak-kinds: reachable
   fun:malloc
   fun:_ZN2os6mallocEmtPh
   fun:_ZN8CHeapObjILt1024EEnwEmPh
   fun:_ZN21AdapterHandlerLibrary11get_adapterE12methodHandle
   fun:_ZN13methodOopDesc13make_adaptersE12methodHandleP6Thread
   fun:_ZN8Rewriter17relocate_and_linkE19instanceKlassHandle14objArrayHandleP6Thread
   fun:_ZN13instanceKlass15link_class_implE19instanceKlassHandlebP6Thread
   fun:_Z18universe_post_initv
   fun:_Z12init_globalsv
   fun:_ZN7Threads9create_vmEP14JavaVMInitArgsPb
   fun:JNI_CreateJavaVM
   fun:JavaMain
}
{
   <insert_a_suppression_name_here>
   Memcheck:Leak
   match-leak-kinds: reachable
   fun:malloc
   fun:_ZN2os6mallocEmtPh
   fun:_ZN8CHeapObjILt1792EEnwEmPh
   fun:_ZN19ContiguousSpacePoolC1EP15ContiguousSpacePKcN10MemoryPool8PoolTypeEmb
   fun:_ZN13MemoryService26add_generation_memory_poolEP10GenerationP13MemoryManagerS3_
   fun:_ZN13MemoryService27add_gen_collected_heap_infoEP16GenCollectedHeap
   fun:_ZN13MemoryService17set_universe_heapEP13CollectedHeap
   fun:_Z18universe_post_initv
   fun:_Z12init_globalsv
   fun:_ZN7Threads9create_vmEP14JavaVMInitArgsPb
   fun:JNI_CreateJavaVM
   fun:JavaMain
}
{
   <insert_a_suppression_name_here>
   Memcheck:Leak
   match-leak-kinds: reachable
   fun:malloc
   fun:_ZN2os6mallocEmtPh
   fun:_ZN8CHeapObjILt1792EEnwEmPh
   fun:_ZN27SurvivorContiguousSpacePoolC1EP16DefNewGenerationPKcN10MemoryPool8PoolTypeEmb
   fun:_ZN13MemoryService26add_generation_memory_poolEP10GenerationP13MemoryManagerS3_
   fun:_ZN13MemoryService27add_gen_collected_heap_infoEP16GenCollectedHeap
   fun:_ZN13MemoryService17set_universe_heapEP13CollectedHeap
   fun:_Z18universe_post_initv
   fun:_Z12init_globalsv
   fun:_ZN7Threads9create_vmEP14JavaVMInitArgsPb
   fun:JNI_CreateJavaVM
   fun:JavaMain
}
{
   <insert_a_suppression_name_here>
   Memcheck:Leak
   match-leak-kinds: reachable
   fun:malloc
   fun:_ZN2os6mallocEmtPh
   fun:_ZN8CHeapObjILt1792EEnwEmPh
   fun:_ZN28CompactibleFreeListSpacePoolC1EP24CompactibleFreeListSpacePKcN10MemoryPool8PoolTypeEmb
   fun:_ZN13MemoryService26add_generation_memory_poolEP10GenerationP13MemoryManagerS3_
   fun:_ZN13MemoryService27add_gen_collected_heap_infoEP16GenCollectedHeap
   fun:_ZN13MemoryService17set_universe_heapEP13CollectedHeap
   fun:_Z18universe_post_initv
   fun:_Z12init_globalsv
   fun:_ZN7Threads9create_vmEP14JavaVMInitArgsPb
   fun:JNI_CreateJavaVM
   fun:JavaMain
}
{
   <insert_a_suppression_name_here>
   Memcheck:Leak
   match-leak-kinds: reachable
   fun:malloc
   fun:_ZN2os6mallocEmtPh
   fun:_ZN8CHeapObjILt1792EEnwEmPh
   fun:_ZN28CompactibleFreeListSpacePoolC1EP24CompactibleFreeListSpacePKcN10MemoryPool8PoolTypeEmb
   fun:_ZN13MemoryService27add_gen_collected_heap_infoEP16GenCollectedHeap
   fun:_ZN13MemoryService17set_universe_heapEP13CollectedHeap
   fun:_Z18universe_post_initv
   fun:_Z12init_globalsv
   fun:_ZN7Threads9create_vmEP14JavaVMInitArgsPb
   fun:JNI_CreateJavaVM
   fun:JavaMain
   fun:start_thread
}
{
   <insert_a_suppression_name_here>
   Memcheck:Leak
   match-leak-kinds: reachable
   fun:malloc
   fun:_ZN2os6mallocEmtPh
   fun:_ZN8CHeapObjILt1024EEnwEmPh
   fun:_ZN21AdapterHandlerLibrary11get_adapterE12methodHandle
   fun:_ZN13methodOopDesc13make_adaptersE12methodHandleP6Thread
   fun:_ZN8Rewriter17relocate_and_linkE19instanceKlassHandle14objArrayHandleP6Thread
   fun:_ZN13instanceKlass15link_class_implE19instanceKlassHandlebP6Thread
   fun:_ZN13instanceKlass15initialize_implE19instanceKlassHandleP6Thread
   fun:_ZN13instanceKlass10initializeEP6Thread
   fun:_ZN18InterpreterRuntime4_newEP10JavaThreadP19constantPoolOopDesci
   obj:*
   obj:*
}
{
   <insert_a_suppression_name_here>
   Memcheck:Leak
   match-leak-kinds: reachable
   fun:malloc
   fun:_ZN2os6mallocEmtPh
   fun:_ZN8CHeapObjILt1024EEnwEmPh
   fun:_ZN21AdapterHandlerLibrary11get_adapterE12methodHandle
   fun:_ZN13methodOopDesc13make_adaptersE12methodHandleP6Thread
   fun:_ZN8Rewriter17relocate_and_linkE19instanceKlassHandle14objArrayHandleP6Thread
   fun:_ZN13instanceKlass15link_class_implE19instanceKlassHandlebP6Thread
   fun:_ZN13instanceKlass15link_class_implE19instanceKlassHandlebP6Thread
   fun:_ZN13instanceKlass15initialize_implE19instanceKlassHandleP6Thread
   fun:_ZN13instanceKlass10initializeEP6Thread
   fun:_ZN18InterpreterRuntime4_newEP10JavaThreadP19constantPoolOopDesci
   obj:*
}
{
   <insert_a_suppression_name_here>
   Memcheck:Leak
   match-leak-kinds: reachable
   fun:malloc
   fun:_ZN2os6mallocEmtPh
   fun:_ZN8CHeapObjILt256EEnwEmPh
   fun:_ZN13instanceKlass15jni_id_for_implE19instanceKlassHandlei
   fun:_ZN13instanceKlass10jni_id_forEi
   fun:jni_GetStaticFieldID
   fun:Java_java_lang_System_setIn0
   obj:*
   obj:*
   obj:*
   fun:_ZN9JavaCalls11call_helperEP9JavaValueP12methodHandleP17JavaCallArgumentsP6Thread
   fun:_ZN9JavaCalls4callEP9JavaValue12methodHandleP17JavaCallArgumentsP6Thread
}
{
   <insert_a_suppression_name_here>
   Memcheck:Leak
   match-leak-kinds: reachable
   fun:malloc
   fun:_ZN2os6mallocEmtPh
   fun:_ZN8CHeapObjILt256EEnwEmPh
   fun:_ZN13instanceKlass15jni_id_for_implE19instanceKlassHandlei
   fun:_ZN13instanceKlass10jni_id_forEi
   fun:jni_GetStaticFieldID
   fun:Java_java_lang_System_setOut0
   obj:*
   obj:*
   obj:*
   fun:_ZN9JavaCalls11call_helperEP9JavaValueP12methodHandleP17JavaCallArgumentsP6Thread
   fun:_ZN9JavaCalls4callEP9JavaValue12methodHandleP17JavaCallArgumentsP6Thread
}
{
   <insert_a_suppression_name_here>
   Memcheck:Leak
   match-leak-kinds: reachable
   fun:malloc
   fun:_ZN2os6mallocEmtPh
   fun:_ZN8CHeapObjILt256EEnwEmPh
   fun:_ZN13instanceKlass15jni_id_for_implE19instanceKlassHandlei
   fun:_ZN13instanceKlass10jni_id_forEi
   fun:jni_GetStaticFieldID
   fun:Java_java_lang_System_setErr0
   obj:*
   obj:*
   obj:*
   fun:_ZN9JavaCalls11call_helperEP9JavaValueP12methodHandleP17JavaCallArgumentsP6Thread
   fun:_ZN9JavaCalls4callEP9JavaValue12methodHandleP17JavaCallArgumentsP6Thread
}
{
   <insert_a_suppression_name_here>
   Memcheck:Leak
   match-leak-kinds: reachable
   fun:malloc
   fun:_ZN2os6mallocEmtPh
   fun:_ZN8CHeapObjILt1024EEnwEmPh
   fun:_ZN21AdapterHandlerLibrary11get_adapterE12methodHandle
   fun:_ZN13methodOopDesc13make_adaptersE12methodHandleP6Thread
   fun:_ZN8Rewriter17relocate_and_linkE19instanceKlassHandle14objArrayHandleP6Thread
   fun:_ZN13instanceKlass15link_class_implE19instanceKlassHandlebP6Thread
   fun:_ZN13instanceKlass15link_class_implE19instanceKlassHandlebP6Thread
   fun:_ZN13instanceKlass15initialize_implE19instanceKlassHandleP6Thread
   fun:_ZN13instanceKlass10initializeEP6Thread
   fun:_Z28find_class_from_class_loaderP7JNIEnv_P6Symbolh6HandleS3_hP6Thread
   fun:lookupDirectBufferClasses
}
{
   <insert_a_suppression_name_here>
   Memcheck:Leak
   match-leak-kinds: reachable
   fun:malloc
   fun:_ZN2os6mallocEmtPh
   fun:_ZN8CHeapObjILt1024EEnwEmPh
   fun:_ZN21AdapterHandlerLibrary11get_adapterE12methodHandle
   fun:_ZN13methodOopDesc13make_adaptersE12methodHandleP6Thread
   fun:_ZN8Rewriter17relocate_and_linkE19instanceKlassHandle14objArrayHandleP6Thread
   fun:_ZN13instanceKlass15link_class_implE19instanceKlassHandlebP6Thread
   fun:_ZN13instanceKlass15initialize_implE19instanceKlassHandleP6Thread
   fun:_ZN13instanceKlass10initializeEP6Thread
   fun:_Z28find_class_from_class_loaderP7JNIEnv_P6Symbolh6HandleS3_hP6Thread
   fun:lookupDirectBufferClasses
   fun:_ZL29initializeDirectBufferSupportP7JNIEnv_P10JavaThread
}
{
   <insert_a_suppression_name_here>
   Memcheck:Leak
   match-leak-kinds: reachable
   fun:malloc
   fun:_ZN2os6mallocEmtPh
   fun:_ZN8CHeapObjILt1024EEnwEmPh
   fun:_ZN21AdapterHandlerLibrary11get_adapterE12methodHandle
   fun:_ZN13methodOopDesc13make_adaptersE12methodHandleP6Thread
   fun:_ZN8Rewriter17relocate_and_linkE19instanceKlassHandle14objArrayHandleP6Thread
   fun:_ZN13instanceKlass15link_class_implE19instanceKlassHandlebP6Thread
   fun:JVM_GetClassDeclaredMethods
   obj:*
   obj:*
   obj:*
   obj:*
}
{
   <insert_a_suppression_name_here>
   Memcheck:Leak
   match-leak-kinds: reachable
   fun:malloc
   fun:_ZN2os6mallocEmtPh
   fun:_ZN8CHeapObjILt1024EEnwEmPh
   fun:_ZN21AdapterHandlerLibrary11get_adapterE12methodHandle
   fun:_ZN13methodOopDesc13make_adaptersE12methodHandleP6Thread
   fun:_ZN8Rewriter17relocate_and_linkE19instanceKlassHandle14objArrayHandleP6Thread
   fun:_ZN13instanceKlass15link_class_implE19instanceKlassHandlebP6Thread
   fun:_ZN13instanceKlass15link_class_implE19instanceKlassHandlebP6Thread
   fun:_ZN13instanceKlass15initialize_implE19instanceKlassHandleP6Thread
   fun:_ZN13instanceKlass10initializeEP6Thread
   fun:_ZN12LinkResolver13resolve_fieldER15FieldAccessInfo18constantPoolHandleiN9Bytecodes4CodeEbbP6Thread
   fun:_ZN12LinkResolver13resolve_fieldER15FieldAccessInfo18constantPoolHandleiN9Bytecodes4CodeEbP6Thread
}
{
   <insert_a_suppression_name_here>
   Memcheck:Leak
   match-leak-kinds: reachable
   fun:malloc
   fun:_ZN2os6mallocEmtPh
   fun:_ZN8CHeapObjILt1024EEnwEmPh
   fun:_ZN21AdapterHandlerLibrary11get_adapterE12methodHandle
   fun:_ZN13methodOopDesc13make_adaptersE12methodHandleP6Thread
   fun:_ZN8Rewriter17relocate_and_linkE19instanceKlassHandle14objArrayHandleP6Thread
   fun:_ZN13instanceKlass15link_class_implE19instanceKlassHandlebP6Thread
   fun:_ZN13instanceKlass15link_class_implE19instanceKlassHandlebP6Thread
   fun:_ZN13instanceKlass15link_class_implE19instanceKlassHandlebP6Thread
   fun:_ZN13instanceKlass15link_class_implE19instanceKlassHandlebP6Thread
   fun:_ZN13instanceKlass15initialize_implE19instanceKlassHandleP6Thread
   fun:_ZN13instanceKlass10initializeEP6Thread
}
{
   <insert_a_suppression_name_here>
   Memcheck:Leak
   match-leak-kinds: reachable
   fun:malloc
   fun:_ZN2os6mallocEmtPh
   fun:_ZN8CHeapObjILt1024EEnwEmPh
   fun:_ZN21AdapterHandlerLibrary11get_adapterE12methodHandle
   fun:_ZN13methodOopDesc13make_adaptersE12methodHandleP6Thread
   fun:_ZN8Rewriter17relocate_and_linkE19instanceKlassHandle14objArrayHandleP6Thread
   fun:_ZN13instanceKlass15link_class_implE19instanceKlassHandlebP6Thread
   fun:_ZN13instanceKlass15link_class_implE19instanceKlassHandlebP6Thread
   fun:_ZN13instanceKlass15link_class_implE19instanceKlassHandlebP6Thread
   fun:_ZN13instanceKlass15initialize_implE19instanceKlassHandleP6Thread
   fun:_ZN13instanceKlass10initializeEP6Thread
   fun:_ZN18InterpreterRuntime4_newEP10JavaThreadP19constantPoolOopDesci
}
{
   <insert_a_suppression_name_here>
   Memcheck:Leak
   match-leak-kinds: reachable
   fun:malloc
   fun:_ZN2os6mallocEmtPh
   fun:_ZN8CHeapObjILt256EEnwEmPh
   fun:_ZN13instanceKlass15jni_id_for_implE19instanceKlassHandlei
   fun:_ZN13instanceKlass10jni_id_forEi
   fun:jni_GetStaticFieldID
   fun:Java_java_net_InetAddress_init
   obj:*
   obj:*
   obj:*
   fun:_ZN9JavaCalls11call_helperEP9JavaValueP12methodHandleP17JavaCallArgumentsP6Thread
   fun:_ZN9JavaCalls4callEP9JavaValue12methodHandleP17JavaCallArgumentsP6Thread
}
{
   <insert_a_suppression_name_here>
   Memcheck:Leak
   match-leak-kinds: possible
   fun:malloc
   fun:_ZN2os6mallocEmtPh
   fun:_Z12AllocateHeapmtPhN17AllocFailStrategy13AllocFailEnumE
   fun:_ZN11ClassLoader11add_packageEPKciP6Thread
   fun:_ZN11ClassLoader14load_classfileEP6SymbolP6Thread
   fun:_ZN16SystemDictionary19load_instance_classEP6Symbol6HandleP6Thread
   fun:_ZN16SystemDictionary30resolve_instance_class_or_nullEP6Symbol6HandleS2_P6Thread
   fun:_ZN16SystemDictionary15resolve_or_nullEP6Symbol6HandleS2_P6Thread
   fun:_ZN16SystemDictionary15resolve_or_failEP6Symbol6HandleS2_bP6Thread
   fun:_ZN10Reflection8new_typeEP6Symbol11KlassHandleP6Thread
   fun:_ZN10Reflection9new_fieldEP15fieldDescriptorbP6Thread
   fun:JVM_GetClassDeclaredFields
}
{
   <insert_a_suppression_name_here>
   Memcheck:Leak
   match-leak-kinds: possible
   fun:malloc
   fun:_ZN2os6mallocEmtPh
   fun:_ZN8CHeapObjILt1792EEnwEmPh
   fun:_ZN20ThreadSafepointState6createEP10JavaThread
   fun:_ZN10JavaThread10initializeEv
   fun:_ZN10JavaThreadC2EPFvPS_P6ThreadEm
   fun:_ZN21SurrogateLockerThreadC1Ev
   fun:_ZN21SurrogateLockerThread4makeEP6Thread
   fun:_ZN25ConcurrentMarkSweepThread25makeSurrogateLockerThreadEP6Thread
   fun:_ZN7Threads9create_vmEP14JavaVMInitArgsPb
   fun:JNI_CreateJavaVM
   fun:JavaMain
}
{
   <insert_a_suppression_name_here>
   Memcheck:Leak
   match-leak-kinds: possible
   fun:malloc
   fun:_ZN2os6mallocEmtPh
   fun:_ZN8CHeapObjILt1792EEnwEmPh
   fun:_ZN20ThreadSafepointState6createEP10JavaThread
   fun:_ZN10JavaThread10initializeEv
   fun:_ZN10JavaThreadC1EPFvPS_P6ThreadEm
   fun:_ZN2os11signal_initEv
   fun:_ZN7Threads9create_vmEP14JavaVMInitArgsPb
   fun:JNI_CreateJavaVM
   fun:JavaMain
   fun:start_thread
   fun:clone
}
{
   <insert_a_suppression_name_here>
   Memcheck:Leak
   match-leak-kinds: possible
   fun:malloc
   fun:_ZN2os6mallocEmtPh
   fun:_ZN8CHeapObjILt1792EEnwEmPh
   fun:_ZN20ThreadSafepointState6createEP10JavaThread
   fun:_ZN10JavaThread10initializeEv
   fun:_ZN10JavaThreadC2EPFvPS_P6ThreadEm
   fun:_ZN13ServiceThread10initializeEv
   fun:_ZN10Management10initializeEP6Thread
   fun:_ZN7Threads9create_vmEP14JavaVMInitArgsPb
   fun:JNI_CreateJavaVM
   fun:JavaMain
   fun:start_thread
}
{
   <insert_a_suppression_name_here>
   Memcheck:Leak
   match-leak-kinds: possible
   fun:malloc
   fun:_ZN2os6mallocEmtPh
   fun:_ZN8CHeapObjILt1792EEnwEmPh
   fun:_ZN20ThreadSafepointState6createEP10JavaThread
   fun:_ZN10JavaThread10initializeEv
   fun:_ZN10JavaThreadC1EPFvPS_P6ThreadEm
   fun:JVM_StartThread
   obj:*
   obj:*
   obj:*
   obj:*
   obj:*
}
{
   <insert_a_suppression_name_here>
   Memcheck:Leak
   match-leak-kinds: possible
   fun:malloc
   fun:_ZN2os6mallocEmtPh
   fun:_ZN8CHeapObjILt1792EEnwEmPh
   fun:_ZN20ThreadSafepointState6createEP10JavaThread
   fun:_ZN10JavaThread10initializeEv
   fun:_ZN10JavaThreadC1Eb
   fun:attach_current_thread
   fun:jni_DestroyJavaVM
   fun:JavaMain
   fun:start_thread
   fun:clone
}
{
   <insert_a_suppression_name_here>
   Memcheck:Leak
   match-leak-kinds: reachable
   fun:malloc
   fun:_ZN2os6mallocEmtPh
   fun:_ZN2os29init_system_properties_valuesEv
   fun:_ZN7Threads9create_vmEP14JavaVMInitArgsPb
   fun:JNI_CreateJavaVM
   fun:JavaMain
   fun:start_thread
   fun:clone
}
{
   <insert_a_suppression_name_here>
   Memcheck:Leak
   match-leak-kinds: possible
   fun:malloc
   fun:_ZN2os6mallocEmtPh
   fun:_Z12AllocateHeapmtPhN17AllocFailStrategy13AllocFailEnumE
   fun:_ZN11ClassLoader11add_packageEPKciP6Thread
   fun:_ZN11ClassLoader14load_classfileEP6SymbolP6Thread
   fun:_ZN16SystemDictionary19load_instance_classEP6Symbol6HandleP6Thread
   fun:_ZN16SystemDictionary30resolve_instance_class_or_nullEP6Symbol6HandleS2_P6Thread
   fun:_ZN16SystemDictionary15resolve_or_nullEP6Symbol6HandleS2_P6Thread
   fun:_ZN16SystemDictionary15resolve_or_failEP6Symbol6HandleS2_bP6Thread
   fun:_ZN19constantPoolOopDesc13klass_at_implE18constantPoolHandleiP6Thread
   fun:_ZN18InterpreterRuntime13quicken_io_ccEP10JavaThread
   obj:*
}
{
   <insert_a_suppression_name_here>
   Memcheck:Leak
   match-leak-kinds: definite
   fun:malloc
   fun:_ZN2os6mallocEmtPh
   fun:_ZN2os29init_system_properties_valuesEv
   fun:_ZN7Threads9create_vmEP14JavaVMInitArgsPb
   fun:JNI_CreateJavaVM
   fun:JavaMain
   fun:start_thread
   fun:clone
}
{
   <insert_a_suppression_name_here>
   Memcheck:Leak
   match-leak-kinds: reachable
   fun:malloc
   fun:strdup
   fun:JLI_StringDup
   fun:SetExecname
   fun:CreateExecutionEnvironment
   fun:JLI_Launch
   fun:main
}
{
   <insert_a_suppression_name_here>
   Memcheck:Leak
   match-leak-kinds: reachable
   fun:malloc
   fun:_ZN2os6mallocEmtPh
   fun:_ZN2os13set_boot_pathEcc
   fun:_ZN2os29init_system_properties_valuesEv
   fun:_ZN7Threads9create_vmEP14JavaVMInitArgsPb
   fun:JNI_CreateJavaVM
   fun:JavaMain
   fun:start_thread
   fun:clone
}
{
   <insert_a_suppression_name_here>
   Memcheck:Leak
   match-leak-kinds: reachable
   fun:calloc
   fun:_dlerror_run
   fun:dlopen@@GLIBC_2.2.5
   fun:LoadJavaVM
   fun:JLI_Launch
   fun:main
}
{
   <insert_a_suppression_name_here>
   Memcheck:Leak
   match-leak-kinds: reachable
   fun:malloc
   fun:_ZN2os6mallocEmtPh
   fun:_ZN11ResourceObjnwEmNS_15allocation_typeEt
   fun:_GLOBAL__I_reflectionUtils.cpp
   obj:/usr/java/jdk1.7.0_80/jre/lib/amd64/server/libjvm.so
   obj:/usr/java/jdk1.7.0_80/jre/lib/amd64/server/libjvm.so
   obj:*
   fun:call_init
   fun:_dl_init
   fun:dl_open_worker
   fun:_dl_catch_exception
   fun:_dl_open
   fun:dlopen_doit
}
{
   <insert_a_suppression_name_here>
   Memcheck:Leak
   match-leak-kinds: reachable
   fun:malloc
   fun:_ZN2os6mallocEmtPh
   fun:_ZN11ResourceObjnwEmNS_15allocation_typeEt
   fun:_GLOBAL__I_memoryService.cpp
   obj:/usr/java/jdk1.7.0_80/jre/lib/amd64/server/libjvm.so
   obj:/usr/java/jdk1.7.0_80/jre/lib/amd64/server/libjvm.so
   obj:*
   fun:call_init
   fun:_dl_init
   fun:dl_open_worker
   fun:_dl_catch_exception
   fun:_dl_open
   fun:dlopen_doit
}
{
   <insert_a_suppression_name_here>
   Memcheck:Leak
   match-leak-kinds: reachable
   fun:calloc
   fun:_dlerror_run
   fun:dlopen@@GLIBC_2.2.5
   fun:_ZN2os5Linux10clock_initEv
   fun:_ZN2os4initEv
   fun:_ZN7Threads9create_vmEP14JavaVMInitArgsPb
   fun:JNI_CreateJavaVM
   fun:JavaMain
   fun:start_thread
   fun:clone
}
{
   <insert_a_suppression_name_here>
   Memcheck:Leak
   match-leak-kinds: reachable
   fun:malloc
   fun:_ZN2os6mallocEmtPh
   fun:_ZN8CHeapObjILt1792EEnwEmPh
   fun:_ZN9Arguments22init_system_propertiesEv
   fun:_ZN7Threads9create_vmEP14JavaVMInitArgsPb
   fun:JNI_CreateJavaVM
   fun:JavaMain
   fun:start_thread
   fun:clone
}
{
   <insert_a_suppression_name_here>
   Memcheck:Leak
   match-leak-kinds: reachable
   fun:malloc
   fun:_ZN2os6mallocEmtPh
   fun:_ZN8CHeapObjILt1792EEnwEmPh
   fun:_ZN9Arguments39init_version_specific_system_propertiesEv
   fun:_ZN7Threads9create_vmEP14JavaVMInitArgsPb
   fun:JNI_CreateJavaVM
   fun:JavaMain
   fun:start_thread
   fun:clone
}
{
   <insert_a_suppression_name_here>
   Memcheck:Leak
   match-leak-kinds: reachable
   fun:malloc
   fun:_ZN2os6mallocEmtPh
   fun:_ZN8CHeapObjILt1792EEnwEmPh
   fun:_Z14chunkpool_initv
   fun:_Z15vm_init_globalsv
   fun:_ZN7Threads9create_vmEP14JavaVMInitArgsPb
   fun:JNI_CreateJavaVM
   fun:JavaMain
   fun:start_thread
   fun:clone
}
{
   <insert_a_suppression_name_here>
   Memcheck:Leak
   match-leak-kinds: reachable
   fun:malloc
   fun:_ZN2os6mallocEmtPh
   fun:_ZN8CHeapObjILt1280EEnwEmPh
   fun:_ZN25ConcurrentMarkSweepPolicy22initialize_generationsEv
   fun:_ZN8Universe15initialize_heapEv
   fun:_Z13universe_initv
   fun:_Z12init_globalsv
   fun:_ZN7Threads9create_vmEP14JavaVMInitArgsPb
   fun:JNI_CreateJavaVM
   fun:JavaMain
   fun:start_thread
   fun:clone
}
{
   <insert_a_suppression_name_here>
   Memcheck:Leak
   match-leak-kinds: reachable
   fun:malloc
   fun:_ZN2os6mallocEmtPh
   fun:_ZN12SubTasksDoneC1Ej
   fun:_ZN10SharedHeapC2EP15CollectorPolicy
   fun:_ZN16GenCollectedHeapC1EP18GenCollectorPolicy
   fun:_ZN8Universe15initialize_heapEv
   fun:_Z13universe_initv
   fun:_Z12init_globalsv
   fun:_ZN7Threads9create_vmEP14JavaVMInitArgsPb
   fun:JNI_CreateJavaVM
   fun:JavaMain
   fun:start_thread
}
{
   <insert_a_suppression_name_here>
   Memcheck:Leak
   match-leak-kinds: reachable
   fun:malloc
   fun:_ZN2os6mallocEmtPh
   fun:_ZN8CHeapObjILt1280EEnwEmPh
   fun:_ZN16DefNewGenerationC2E13ReservedSpacemiPKc
   fun:_ZN16ParNewGenerationC1E13ReservedSpacemi
   fun:_ZN14GenerationSpec4initE13ReservedSpaceiP9GenRemSet
   fun:_ZN16GenCollectedHeap10initializeEv
   fun:_ZN8Universe15initialize_heapEv
   fun:_Z13universe_initv
   fun:_Z12init_globalsv
   fun:_ZN7Threads9create_vmEP14JavaVMInitArgsPb
   fun:JNI_CreateJavaVM
}
{
   <insert_a_suppression_name_here>
   Memcheck:Leak
   match-leak-kinds: reachable
   fun:malloc
   fun:_ZN2os6mallocEmtPh
   fun:_ZN11ResourceObjnwEmNS_15allocation_typeEt
   fun:_ZN14TimePartitionsC1Ev
   fun:_ZN16DefNewGenerationC2E13ReservedSpacemiPKc
   fun:_ZN16ParNewGenerationC1E13ReservedSpacemi
   fun:_ZN14GenerationSpec4initE13ReservedSpaceiP9GenRemSet
   fun:_ZN16GenCollectedHeap10initializeEv
   fun:_ZN8Universe15initialize_heapEv
   fun:_Z13universe_initv
   fun:_Z12init_globalsv
   fun:_ZN7Threads9create_vmEP14JavaVMInitArgsPb
}
{
   <insert_a_suppression_name_here>
   Memcheck:Leak
   match-leak-kinds: reachable
   fun:malloc
   fun:_ZN2os6mallocEmtPh
   fun:_ZN8CHeapObjILt1280EEnwEmPh
   fun:_ZN10CMSGCStatsC1Ev
   fun:_ZN29ConcurrentMarkSweepGenerationC1E13ReservedSpacemiP11CardTableRSbN19FreeBlockDictionaryI9FreeChunkE16DictionaryChoiceE
   fun:_ZN14GenerationSpec4initE13ReservedSpaceiP9GenRemSet
   fun:_ZN16GenCollectedHeap10initializeEv
   fun:_ZN8Universe15initialize_heapEv
   fun:_Z13universe_initv
   fun:_Z12init_globalsv
   fun:_ZN7Threads9create_vmEP14JavaVMInitArgsPb
   fun:JNI_CreateJavaVM
}
{
   <insert_a_suppression_name_here>
   Memcheck:Leak
   match-leak-kinds: reachable
   fun:malloc
   fun:_ZN2os6mallocEmtPh
   fun:_ZN8CHeapObjILt1280EEnwEmPh
   fun:_ZN29ConcurrentMarkSweepGeneration31initialize_performance_countersEv
   fun:_ZN14GenerationSpec4initE13ReservedSpaceiP9GenRemSet
   fun:_ZN16GenCollectedHeap10initializeEv
   fun:_ZN8Universe15initialize_heapEv
   fun:_Z13universe_initv
   fun:_Z12init_globalsv
   fun:_ZN7Threads9create_vmEP14JavaVMInitArgsPb
   fun:JNI_CreateJavaVM
   fun:JavaMain
}
{
   <insert_a_suppression_name_here>
   Memcheck:Leak
   match-leak-kinds: reachable
   fun:malloc
   fun:_ZN2os6mallocEmtPh
   fun:_ZN8CHeapObjILt1280EEnwEmPh
   fun:_ZN10CMSGCStatsC1Ev
   fun:_ZN29ConcurrentMarkSweepGenerationC2E13ReservedSpacemiP11CardTableRSbN19FreeBlockDictionaryI9FreeChunkE16DictionaryChoiceE
   fun:_ZN10CMSPermGenC1E13ReservedSpacemP11CardTableRSN19FreeBlockDictionaryI9FreeChunkE16DictionaryChoiceE
   fun:_ZN23PermanentGenerationSpec4initE13ReservedSpacemP9GenRemSet
   fun:_ZN16GenCollectedHeap10initializeEv
   fun:_ZN8Universe15initialize_heapEv
   fun:_Z13universe_initv
   fun:_Z12init_globalsv
   fun:_ZN7Threads9create_vmEP14JavaVMInitArgsPb
}
{
   <insert_a_suppression_name_here>
   Memcheck:Leak
   match-leak-kinds: reachable
   fun:malloc
   fun:_ZN2os6mallocEmtPh
   fun:_ZN8CHeapObjILt1280EEnwEmPh
   fun:_ZN10CMSPermGenC1E13ReservedSpacemP11CardTableRSN19FreeBlockDictionaryI9FreeChunkE16DictionaryChoiceE
   fun:_ZN23PermanentGenerationSpec4initE13ReservedSpacemP9GenRemSet
   fun:_ZN16GenCollectedHeap10initializeEv
   fun:_ZN8Universe15initialize_heapEv
   fun:_Z13universe_initv
   fun:_Z12init_globalsv
   fun:_ZN7Threads9create_vmEP14JavaVMInitArgsPb
   fun:JNI_CreateJavaVM
   fun:JavaMain
}
{
   <insert_a_suppression_name_here>
   Memcheck:Leak
   match-leak-kinds: reachable
   fun:malloc
   fun:_ZN2os6mallocEmtPh
   fun:_ZN11ResourceObjnwEmNS_15allocation_typeEt
   fun:_ZN14TimePartitionsC1Ev
   fun:_ZN12CMSCollectorC1EP29ConcurrentMarkSweepGenerationS1_P11CardTableRSP25ConcurrentMarkSweepPolicy
   fun:_ZN16GenCollectedHeap20create_cms_collectorEv
   fun:_ZN16GenCollectedHeap10initializeEv
   fun:_ZN8Universe15initialize_heapEv
   fun:_Z13universe_initv
   fun:_Z12init_globalsv
   fun:_ZN7Threads9create_vmEP14JavaVMInitArgsPb
   fun:JNI_CreateJavaVM
}
{
   <insert_a_suppression_name_here>
   Memcheck:Leak
   match-leak-kinds: reachable
   fun:malloc
   fun:_ZN2os6mallocEmtPh
   fun:_ZN11ResourceObjnwEmNS_15allocation_typeEt
   fun:_ZN14TimePartitionsC1Ev
   fun:_Z14marksweep_initv
   fun:_Z12init_globalsv
   fun:_ZN7Threads9create_vmEP14JavaVMInitArgsPb
   fun:JNI_CreateJavaVM
   fun:JavaMain
   fun:start_thread
   fun:clone
}
{
   <insert_a_suppression_name_here>
   Memcheck:Leak
   match-leak-kinds: reachable
   fun:malloc
   fun:_ZN2os6mallocEmtPh
   fun:_ZN8CHeapObjILt256EEnwEmPh
   fun:_ZN11ClassLoader23create_class_path_entryEPcPK4statbP6Thread
   fun:_ZN18LazyClassPathEntry13resolve_entryEP6Thread
   fun:_ZN18LazyClassPathEntry11open_streamEPKcP6Thread
   fun:_ZN11ClassLoader14load_classfileEP6SymbolP6Thread
   fun:_ZN16SystemDictionary19load_instance_classEP6Symbol6HandleP6Thread
   fun:_ZN16SystemDictionary30resolve_instance_class_or_nullEP6Symbol6HandleS2_P6Thread
   fun:_ZN16SystemDictionary15resolve_or_nullEP6Symbol6HandleS2_P6Thread
   fun:_ZN16SystemDictionary28initialize_preloaded_classesEP6Thread
   fun:_ZN8Universe7genesisEP6Thread
}
{
   <insert_a_suppression_name_here>
   Memcheck:Leak
   match-leak-kinds: reachable
   fun:malloc
   fun:_ZN2os6mallocEmtPh
   fun:_ZN8CHeapObjILt1280EEnwEmPh
   fun:_ZN25ConcurrentMarkSweepPolicy29initialize_gc_policy_countersEv
   fun:_Z18universe_post_initv
   fun:_Z12init_globalsv
   fun:_ZN7Threads9create_vmEP14JavaVMInitArgsPb
   fun:JNI_CreateJavaVM
   fun:JavaMain
   fun:start_thread
   fun:clone
}
{
   <insert_a_suppression_name_here>
   Memcheck:Leak
   match-leak-kinds: reachable
   fun:malloc
   fun:_ZN2os6mallocEmtPh
   fun:_ZN11ResourceObjnwEmNS_15allocation_typeEt
   fun:_ZN23SignatureHandlerLibrary10initializeEv
   fun:_ZN23SignatureHandlerLibrary3addE12methodHandle
   fun:_ZN18InterpreterRuntime19prepare_native_callEP10JavaThreadP13methodOopDesc
   obj:*
   obj:*
   obj:*
   fun:_ZN9JavaCalls11call_helperEP9JavaValueP12methodHandleP17JavaCallArgumentsP6Thread
   fun:_ZN9JavaCalls4callEP9JavaValue12methodHandleP17JavaCallArgumentsP6Thread
   fun:_ZN13instanceKlass22call_class_initializerEP6Thread
}
{
   <insert_a_suppression_name_here>
   Memcheck:Leak
   match-leak-kinds: reachable
   fun:malloc
   fun:_ZN2os6mallocEmtPh
   fun:_ZN11ResourceObjnwEmNS_15allocation_typeEt
   fun:_ZN13CompileBroker21init_compiler_threadsEii
   fun:_ZN13CompileBroker16compilation_initEv
   fun:_ZN7Threads9create_vmEP14JavaVMInitArgsPb
   fun:JNI_CreateJavaVM
   fun:JavaMain
   fun:start_thread
   fun:clone
}
{
   <insert_a_suppression_name_here>
   Memcheck:Leak
   match-leak-kinds: reachable
   fun:malloc
   fun:newEntry
   fun:ZIP_GetEntry
   fun:ZIP_FindEntry
   fun:_ZN17ClassPathZipEntry11open_streamEPKcP6Thread
   fun:_ZN11ClassLoader14load_classfileEP6SymbolP6Thread
   fun:_ZN16SystemDictionary19load_instance_classEP6Symbol6HandleP6Thread
   fun:_ZN16SystemDictionary30resolve_instance_class_or_nullEP6Symbol6HandleS2_P6Thread
   fun:_ZN16SystemDictionary15resolve_or_nullEP6Symbol6HandleS2_P6Thread
   fun:JVM_FindClassFromBootLoader
   fun:Java_java_lang_ClassLoader_findBootstrapClass
   obj:*
}
{
   <insert_a_suppression_name_here>
   Memcheck:Leak
   match-leak-kinds: reachable
   fun:malloc
   fun:_ZN2os6mallocEmtPh
   fun:_ZN8CHeapObjILt256EEnwEmPh
   fun:_ZN11ClassLoader23create_class_path_entryEPcPK4statbP6Thread
   fun:_ZN18LazyClassPathEntry13resolve_entryEP6Thread
   fun:_ZN18LazyClassPathEntry11open_streamEPKcP6Thread
   fun:_ZN11ClassLoader14load_classfileEP6SymbolP6Thread
   fun:_ZN16SystemDictionary19load_instance_classEP6Symbol6HandleP6Thread
   fun:_ZN16SystemDictionary30resolve_instance_class_or_nullEP6Symbol6HandleS2_P6Thread
   fun:_ZN16SystemDictionary15resolve_or_nullEP6Symbol6HandleS2_P6Thread
   fun:JVM_FindClassFromBootLoader
   fun:Java_java_lang_ClassLoader_findBootstrapClass
}
{
   <insert_a_suppression_name_here>
   Memcheck:Leak
   match-leak-kinds: reachable
   fun:calloc
   fun:_dlerror_run
   fun:dlsym
   fun:_ZN2os10dll_lookupEPvPKc
   fun:_ZN12NativeLookup12lookup_styleE12methodHandlePcPKcibRbP6Thread
   fun:_ZN12NativeLookup12lookup_entryE12methodHandleRbP6Thread
   fun:_ZN12NativeLookup11lookup_baseE12methodHandleRbP6Thread
   fun:_ZN12NativeLookup6lookupE12methodHandleRbP6Thread
   fun:_ZN18InterpreterRuntime19prepare_native_callEP10JavaThreadP13methodOopDesc
   obj:*
   obj:*
   obj:*
}
{
   <insert_a_suppression_name_here>
   Memcheck:Leak
   match-leak-kinds: reachable
   fun:malloc
   fun:_ZN2os6mallocEmtPh
   fun:_ZN11ResourceObjnwEmNS_15allocation_typeEt
   fun:_ZN19DerivedPointerTable5clearEv
   fun:_ZN16GenCollectedHeap13do_collectionEbbmbi
   fun:_ZN16GenCollectedHeap18do_full_collectionEbi
   fun:_ZN17VM_GenCollectFull4doitEv
   fun:_ZN12VM_Operation8evaluateEv
   fun:_ZN8VMThread18evaluate_operationEP12VM_Operation
   fun:_ZN8VMThread4loopEv
   fun:_ZN8VMThread3runEv
   fun:_ZL10java_startP6Thread
}
{
   <insert_a_suppression_name_here>
   Memcheck:Leak
   match-leak-kinds: reachable
   fun:malloc
   fun:_ZN2os6mallocEmtPh
   fun:_ZN8CHeapObjILt256EEnwEmPh
   fun:_ZN10Dictionary21add_protection_domainEij19instanceKlassHandle6HandleS1_P6Thread
   fun:_ZN16SystemDictionary26validate_protection_domainE19instanceKlassHandle6HandleS1_P6Thread
   fun:_ZN16SystemDictionary30resolve_instance_class_or_nullEP6Symbol6HandleS2_P6Thread
   fun:_ZN16SystemDictionary15resolve_or_nullEP6Symbol6HandleS2_P6Thread
   fun:_ZN16SystemDictionary15resolve_or_failEP6Symbol6HandleS2_bP6Thread
   fun:_ZN19constantPoolOopDesc13klass_at_implE18constantPoolHandleiP6Thread
   fun:_ZN12LinkResolver20resolve_invokestaticER8CallInfo18constantPoolHandleiP6Thread
   fun:_ZN18InterpreterRuntime14resolve_invokeEP10JavaThreadN9Bytecodes4CodeE
   obj:*
}
{
   <insert_a_suppression_name_here>
   Memcheck:Leak
   match-leak-kinds: reachable
   fun:malloc
   fun:_ZN2os6mallocEmtPh
   fun:_ZN8CHeapObjILt256EEnwEmPh
   fun:_ZN10Dictionary21add_protection_domainEij19instanceKlassHandle6HandleS1_P6Thread
   fun:_ZN16SystemDictionary26validate_protection_domainE19instanceKlassHandle6HandleS1_P6Thread
   fun:_ZN16SystemDictionary30resolve_instance_class_or_nullEP6Symbol6HandleS2_P6Thread
   fun:_ZN16SystemDictionary15resolve_or_nullEP6Symbol6HandleS2_P6Thread
   fun:_ZN16SystemDictionary15resolve_or_failEP6Symbol6HandleS2_bP6Thread
   fun:_ZN19constantPoolOopDesc13klass_at_implE18constantPoolHandleiP6Thread
   fun:_ZN12LinkResolver23resolve_invokeinterfaceER8CallInfo6Handle18constantPoolHandleiP6Thread
   fun:_ZN18InterpreterRuntime14resolve_invokeEP10JavaThreadN9Bytecodes4CodeE
   obj:*
}
{
   <insert_a_suppression_name_here>
   Memcheck:Leak
   match-leak-kinds: reachable
   fun:malloc
   fun:_ZN2os6mallocEmtPh
   fun:_ZN8CHeapObjILt256EEnwEmPh
   fun:_ZN10Dictionary21add_protection_domainEij19instanceKlassHandle6HandleS1_P6Thread
   fun:_ZN16SystemDictionary26validate_protection_domainE19instanceKlassHandle6HandleS1_P6Thread
   fun:_ZN16SystemDictionary30resolve_instance_class_or_nullEP6Symbol6HandleS2_P6Thread
   fun:_ZN16SystemDictionary15resolve_or_nullEP6Symbol6HandleS2_P6Thread
   fun:_ZN16SystemDictionary15resolve_or_failEP6Symbol6HandleS2_bP6Thread
   fun:_ZN19constantPoolOopDesc13klass_at_implE18constantPoolHandleiP6Thread
   fun:_ZN12LinkResolver13resolve_fieldER15FieldAccessInfo18constantPoolHandleiN9Bytecodes4CodeEbbP6Thread
   fun:_ZN12LinkResolver13resolve_fieldER15FieldAccessInfo18constantPoolHandleiN9Bytecodes4CodeEbP6Thread
   fun:_ZN18InterpreterRuntime15resolve_get_putEP10JavaThreadN9Bytecodes4CodeE
}
{
   <insert_a_suppression_name_here>
   Memcheck:Leak
   match-leak-kinds: reachable
   fun:malloc
   fun:decompose_rpath
   fun:cache_rpath
   fun:_dl_map_object
   fun:openaux
   fun:_dl_catch_exception
   fun:_dl_map_object_deps
   fun:dl_open_worker
   fun:_dl_catch_exception
   fun:_dl_open
   fun:dlopen_doit
   fun:_dl_catch_exception
   fun:_dl_catch_error
}
{
   <insert_a_suppression_name_here>
   Memcheck:Leak
   match-leak-kinds: reachable
   fun:malloc
   fun:_ZN2os6mallocEmtPh
   fun:_ZN8CHeapObjILt256EEnwEmPh
   fun:_ZN10Dictionary21add_protection_domainEij19instanceKlassHandle6HandleS1_P6Thread
   fun:_ZN16SystemDictionary26validate_protection_domainE19instanceKlassHandle6HandleS1_P6Thread
   fun:_ZN16SystemDictionary30resolve_instance_class_or_nullEP6Symbol6HandleS2_P6Thread
   fun:_ZN16SystemDictionary15resolve_or_nullEP6Symbol6HandleS2_P6Thread
   fun:_ZN16SystemDictionary15resolve_or_failEP6Symbol6HandleS2_bP6Thread
   fun:_ZN19constantPoolOopDesc13klass_at_implE18constantPoolHandleiP6Thread
   fun:_ZN12LinkResolver21resolve_invokevirtualER8CallInfo6Handle18constantPoolHandleiP6Thread
   fun:_ZN18InterpreterRuntime14resolve_invokeEP10JavaThreadN9Bytecodes4CodeE
   obj:*
}
{
   <insert_a_suppression_name_here>
   Memcheck:Leak
   match-leak-kinds: possible
   fun:malloc
   fun:_ZN2os6mallocEmtPh
   fun:_ZN8CHeapObjILt256EEnwEmPh
   fun:_ZN10Dictionary21add_protection_domainEij19instanceKlassHandle6HandleS1_P6Thread
   fun:_ZN16SystemDictionary26validate_protection_domainE19instanceKlassHandle6HandleS1_P6Thread
   fun:_ZN16SystemDictionary30resolve_instance_class_or_nullEP6Symbol6HandleS2_P6Thread
   fun:_ZN16SystemDictionary15resolve_or_nullEP6Symbol6HandleS2_P6Thread
   fun:_ZN16SystemDictionary21resolve_super_or_failEP6SymbolS1_6HandleS2_bP6Thread
   fun:_ZN15ClassFileParser14parseClassFileEP6Symbol6HandleS2_11KlassHandleP13GrowableArrayIS2_ER13TempNewSymbolbP6Thread
   fun:_ZN16SystemDictionary19resolve_from_streamEP6Symbol6HandleS2_P15ClassFileStreambP6Thread
   fun:_ZL23jvm_define_class_commonP7JNIEnv_PKcP8_jobjectPKaiS4_S2_hP6Thread
   fun:JVM_DefineClassWithSource
}
{
   <insert_a_suppression_name_here>
   Memcheck:Leak
   match-leak-kinds: possible
   fun:malloc
   fun:_ZN2os6mallocEmtPh
   fun:_ZN8CHeapObjILt256EEnwEmPh
   fun:_ZN10Dictionary21add_protection_domainEij19instanceKlassHandle6HandleS1_P6Thread
   fun:_ZN16SystemDictionary26validate_protection_domainE19instanceKlassHandle6HandleS1_P6Thread
   fun:_ZN16SystemDictionary30resolve_instance_class_or_nullEP6Symbol6HandleS2_P6Thread
   fun:_ZN16SystemDictionary15resolve_or_nullEP6Symbol6HandleS2_P6Thread
   fun:_ZN16SystemDictionary15resolve_or_failEP6Symbol6HandleS2_bP6Thread
   fun:_ZN19constantPoolOopDesc13klass_at_implE18constantPoolHandleiP6Thread
   fun:_ZN12LinkResolver21resolve_invokevirtualER8CallInfo6Handle18constantPoolHandleiP6Thread
   fun:_ZN18InterpreterRuntime14resolve_invokeEP10JavaThreadN9Bytecodes4CodeE
   obj:*
}
{
   <insert_a_suppression_name_here>
   Memcheck:Leak
   match-leak-kinds: possible
   fun:malloc
   fun:_ZN2os6mallocEmtPh
   fun:_Z12AllocateHeapmtPhN17AllocFailStrategy13AllocFailEnumE
   fun:_ZN21LoaderConstraintTable9add_entryEP6SymbolP12klassOopDesc6HandleS3_S4_
   fun:_ZN16SystemDictionary21add_loader_constraintEP6Symbol6HandleS2_P6Thread
   fun:_ZN16SystemDictionary23check_signature_loadersEP6Symbol6HandleS2_bP6Thread
   fun:_ZN11klassItable31initialize_itable_for_interfaceEi11KlassHandlebP6Thread
   fun:_ZN11klassItable17initialize_itableEbP6Thread
   fun:_ZN13instanceKlass15link_class_implE19instanceKlassHandlebP6Thread
   fun:_ZN13instanceKlass15initialize_implE19instanceKlassHandleP6Thread
   fun:_ZN13instanceKlass10initializeEP6Thread
   fun:_ZN18InterpreterRuntime4_newEP10JavaThreadP19constantPoolOopDesci
}
{
   <insert_a_suppression_name_here>
   Memcheck:Leak
   match-leak-kinds: definite
   fun:malloc
   fun:_ZN2os6mallocEmtPh
   fun:_ZN8CHeapObjILt1280EEnwEmPh
   fun:_ZN10CMSGCStatsC1Ev
   fun:_ZN29ConcurrentMarkSweepGenerationC1E13ReservedSpacemiP11CardTableRSbN19FreeBlockDictionaryI9FreeChunkE16DictionaryChoiceE
   fun:_ZN14GenerationSpec4initE13ReservedSpaceiP9GenRemSet
   fun:_ZN16GenCollectedHeap10initializeEv
   fun:_ZN8Universe15initialize_heapEv
   fun:_Z13universe_initv
   fun:_Z12init_globalsv
   fun:_ZN7Threads9create_vmEP14JavaVMInitArgsPb
   fun:JNI_CreateJavaVM
}
{
   <insert_a_suppression_name_here>
   Memcheck:Leak
   match-leak-kinds: definite
   fun:malloc
   fun:_ZN2os6mallocEmtPh
   fun:_ZN8CHeapObjILt1280EEnwEmPh
   fun:_ZN10CMSGCStatsC1Ev
   fun:_ZN29ConcurrentMarkSweepGenerationC2E13ReservedSpacemiP11CardTableRSbN19FreeBlockDictionaryI9FreeChunkE16DictionaryChoiceE
   fun:_ZN10CMSPermGenC1E13ReservedSpacemP11CardTableRSN19FreeBlockDictionaryI9FreeChunkE16DictionaryChoiceE
   fun:_ZN23PermanentGenerationSpec4initE13ReservedSpacemP9GenRemSet
   fun:_ZN16GenCollectedHeap10initializeEv
   fun:_ZN8Universe15initialize_heapEv
   fun:_Z13universe_initv
   fun:_Z12init_globalsv
   fun:_ZN7Threads9create_vmEP14JavaVMInitArgsPb
}
{
   <insert_a_suppression_name_here>
   Memcheck:Leak
   match-leak-kinds: reachable
   fun:malloc
   fun:strdup
   fun:_dl_load_cache_lookup
   fun:_dl_map_object
   fun:dl_open_worker
   fun:_dl_catch_exception
   fun:_dl_open
   fun:dlopen_doit
   fun:_dl_catch_exception
   fun:_dl_catch_error
   fun:_dlerror_run
   fun:dlopen@@GLIBC_2.2.5
}
{
   <insert_a_suppression_name_here>
   Memcheck:Leak
   match-leak-kinds: definite
   fun:malloc
   fun:_ZN2os6mallocEmtPh
   fun:_ZN10PerfMemory20create_memory_regionEm
   fun:_Z15perfMemory_initv
   fun:_ZN7Threads9create_vmEP14JavaVMInitArgsPb
   fun:JNI_CreateJavaVM
   fun:JavaMain
   fun:start_thread
   fun:clone
}
{
   <insert_a_suppression_name_here>
   Memcheck:Leak
   match-leak-kinds: reachable
   fun:malloc
   fun:strdup
   fun:ZIP_Put_In_Cache0
   fun:ZIP_Open
   fun:_ZN11ClassLoader23create_class_path_entryEPcPK4statbP6Thread
   fun:_ZN18LazyClassPathEntry13resolve_entryEP6Thread
   fun:_ZN18LazyClassPathEntry11open_streamEPKcP6Thread
   fun:_ZN11ClassLoader14load_classfileEP6SymbolP6Thread
   fun:_ZN16SystemDictionary19load_instance_classEP6Symbol6HandleP6Thread
   fun:_ZN16SystemDictionary30resolve_instance_class_or_nullEP6Symbol6HandleS2_P6Thread
   fun:_ZN16SystemDictionary15resolve_or_nullEP6Symbol6HandleS2_P6Thread
   fun:_ZN16SystemDictionary28initialize_preloaded_classesEP6Thread
}
{
   <insert_a_suppression_name_here>
   Memcheck:Leak
   match-leak-kinds: reachable
   fun:malloc
   fun:_ZN2os6mallocEmtPh
   fun:_ZN17ClassPathZipEntryC1EPPvPKc
   fun:_ZN11ClassLoader23create_class_path_entryEPcPK4statbP6Thread
   fun:_ZN18LazyClassPathEntry13resolve_entryEP6Thread
   fun:_ZN18LazyClassPathEntry11open_streamEPKcP6Thread
   fun:_ZN11ClassLoader14load_classfileEP6SymbolP6Thread
   fun:_ZN16SystemDictionary19load_instance_classEP6Symbol6HandleP6Thread
   fun:_ZN16SystemDictionary30resolve_instance_class_or_nullEP6Symbol6HandleS2_P6Thread
   fun:_ZN16SystemDictionary15resolve_or_nullEP6Symbol6HandleS2_P6Thread
   fun:_ZN16SystemDictionary28initialize_preloaded_classesEP6Thread
   fun:_ZN8Universe7genesisEP6Thread
}
{
   <insert_a_suppression_name_here>
   Memcheck:Leak
   match-leak-kinds: reachable
   fun:malloc
   fun:strdup
   fun:ZIP_Put_In_Cache0
   fun:ZIP_Open
   fun:_ZN11ClassLoader23create_class_path_entryEPcPK4statbP6Thread
   fun:_ZN18LazyClassPathEntry13resolve_entryEP6Thread
   fun:_ZN18LazyClassPathEntry11open_streamEPKcP6Thread
   fun:_ZN11ClassLoader14load_classfileEP6SymbolP6Thread
   fun:_ZN16SystemDictionary19load_instance_classEP6Symbol6HandleP6Thread
   fun:_ZN16SystemDictionary30resolve_instance_class_or_nullEP6Symbol6HandleS2_P6Thread
   fun:_ZN16SystemDictionary15resolve_or_nullEP6Symbol6HandleS2_P6Thread
   fun:JVM_FindClassFromBootLoader
}
{
   <insert_a_suppression_name_here>
   Memcheck:Leak
   match-leak-kinds: reachable
   fun:malloc
   fun:_ZN2os6mallocEmtPh
   fun:_ZN17ClassPathZipEntryC1EPPvPKc
   fun:_ZN11ClassLoader23create_class_path_entryEPcPK4statbP6Thread
   fun:_ZN18LazyClassPathEntry13resolve_entryEP6Thread
   fun:_ZN18LazyClassPathEntry11open_streamEPKcP6Thread
   fun:_ZN11ClassLoader14load_classfileEP6SymbolP6Thread
   fun:_ZN16SystemDictionary19load_instance_classEP6Symbol6HandleP6Thread
   fun:_ZN16SystemDictionary30resolve_instance_class_or_nullEP6Symbol6HandleS2_P6Thread
   fun:_ZN16SystemDictionary15resolve_or_nullEP6Symbol6HandleS2_P6Thread
   fun:JVM_FindClassFromBootLoader
   fun:Java_java_lang_ClassLoader_findBootstrapClass
}
{
   <insert_a_suppression_name_here>
   Memcheck:Leak
   match-leak-kinds: reachable
   fun:malloc
   fun:_ZN2os6mallocEmtPh
   fun:_ZN20GenericGrowableArray12raw_allocateEi
   fun:_GLOBAL__I_memoryService.cpp
   obj:/usr/java/jdk1.7.0_80/jre/lib/amd64/server/libjvm.so
   obj:/usr/java/jdk1.7.0_80/jre/lib/amd64/server/libjvm.so
   obj:*
   fun:call_init
   fun:_dl_init
   fun:dl_open_worker
   fun:_dl_catch_exception
   fun:_dl_open
   fun:dlopen_doit
}
{
   <insert_a_suppression_name_here>
   Memcheck:Leak
   match-leak-kinds: reachable
   fun:malloc
   fun:_ZN2os6mallocEmtPh
   fun:_ZN8CHeapObjILt1280EEnwEmPh
   fun:_ZN15CollectorPolicy14create_rem_setE9MemRegioni
   fun:_ZN16GenCollectedHeap10initializeEv
   fun:_ZN8Universe15initialize_heapEv
   fun:_Z13universe_initv
   fun:_Z12init_globalsv
   fun:_ZN7Threads9create_vmEP14JavaVMInitArgsPb
   fun:JNI_CreateJavaVM
   fun:JavaMain
   fun:start_thread
}
{
   <insert_a_suppression_name_here>
   Memcheck:Leak
   match-leak-kinds: reachable
   fun:malloc
   fun:_ZN2os6mallocEmtPh
   fun:_ZN5ArenanwEmt
   fun:_ZN11SymbolTable18initialize_symbolsEi
   fun:_Z13universe_initv
   fun:_Z12init_globalsv
   fun:_ZN7Threads9create_vmEP14JavaVMInitArgsPb
   fun:JNI_CreateJavaVM
   fun:JavaMain
   fun:start_thread
   fun:clone
}
{
   <insert_a_suppression_name_here>
   Memcheck:Leak
   match-leak-kinds: reachable
   fun:malloc
   fun:_ZN2os6mallocEmtPh
   fun:_ZN5ArenanwEmt
   fun:_ZN6ThreadC2Ev
   fun:_ZN11NamedThreadC2Ev
   fun:_ZN8VMThread6createEv
   fun:_ZN7Threads9create_vmEP14JavaVMInitArgsPb
   fun:JNI_CreateJavaVM
   fun:JavaMain
   fun:start_thread
   fun:clone
}
{
   <insert_a_suppression_name_here>
   Memcheck:Leak
   match-leak-kinds: reachable
   fun:malloc
   fun:_ZN2os6mallocEmtPh
   fun:_ZN8CHeapObjILt1792EEnwEmPh
   fun:_ZN8VMThread6createEv
   fun:_ZN7Threads9create_vmEP14JavaVMInitArgsPb
   fun:JNI_CreateJavaVM
   fun:JavaMain
   fun:start_thread
   fun:clone
}
{
   <insert_a_suppression_name_here>
   Memcheck:Leak
   match-leak-kinds: reachable
   fun:malloc
   fun:_ZN2os6mallocEmtPh
   fun:_ZN6SymbolnwEmiP6Thread
   fun:_ZN11SymbolTable15allocate_symbolEPKhibP6Thread
   fun:_ZN11SymbolTable9basic_addEiPhijbP6Thread
   fun:_ZN11SymbolTable6lookupEPKciP6Thread
   fun:jni_FindClass
   fun:JNU_NewObjectByName
   obj:*
   obj:*
   obj:*
   fun:_ZN9JavaCalls11call_helperEP9JavaValueP12methodHandleP17JavaCallArgumentsP6Thread
}
{
   <insert_a_suppression_name_here>
   Memcheck:Leak
   match-leak-kinds: reachable
   fun:malloc
   fun:_ZN2os6mallocEmtPh
   fun:_ZN8CHeapObjILt1536EEnwEmPh
   fun:_ZN13CompileBroker21init_compiler_threadsEii
   fun:_ZN13CompileBroker16compilation_initEv
   fun:_ZN7Threads9create_vmEP14JavaVMInitArgsPb
   fun:JNI_CreateJavaVM
   fun:JavaMain
   fun:start_thread
   fun:clone
}
{
   <insert_a_suppression_name_here>
   Memcheck:Leak
   match-leak-kinds: reachable
   fun:malloc
   fun:_ZN2os6mallocEmtPh
   fun:_ZN5ArenanwEmt
   fun:_ZN6ThreadC2Ev
   fun:_ZN14CompilerThreadC1EP12CompileQueueP16CompilerCounters
   fun:_ZN13CompileBroker20make_compiler_threadEPKcP12CompileQueueP16CompilerCountersP6Thread
   fun:_ZN13CompileBroker21init_compiler_threadsEii
   fun:_ZN13CompileBroker16compilation_initEv
   fun:_ZN7Threads9create_vmEP14JavaVMInitArgsPb
   fun:JNI_CreateJavaVM
   fun:JavaMain
   fun:start_thread
}
{
   <insert_a_suppression_name_here>
   Memcheck:Leak
   match-leak-kinds: reachable
   fun:malloc
   fun:_ZN2os6mallocEmtPh
   fun:_ZN6SymbolnwEmiP6Thread
   fun:_ZN11SymbolTable15allocate_symbolEPKhibP6Thread
   fun:_ZN11SymbolTable9basic_addEiPhijbP6Thread
   fun:_ZN11SymbolTable6lookupEPKciP6Thread
   fun:JVM_FindClassFromBootLoader
   fun:GetLauncherHelperClass
   fun:JavaMain
   fun:start_thread
   fun:clone
}
{
   <insert_a_suppression_name_here>
   Memcheck:Leak
   match-leak-kinds: reachable
   fun:malloc
   fun:_ZN2os6mallocEmtPh
   fun:_ZN6SymbolnwEmiP6Thread
   fun:_ZN11SymbolTable15allocate_symbolEPKhibP6Thread
   fun:_ZN11SymbolTable9basic_addEiPhijbP6Thread
   fun:_ZN11SymbolTable6lookupEPKciP6Thread
   fun:lookupDirectBufferClasses
   fun:_ZL29initializeDirectBufferSupportP7JNIEnv_P10JavaThread
   fun:jni_NewDirectByteBuffer
   fun:Perf_CreateLong
   obj:*
   obj:*
}
{
   <insert_a_suppression_name_here>
   Memcheck:Leak
   match-leak-kinds: reachable
   fun:malloc
   fun:_ZN2os6mallocEmtPh
   fun:_ZN5ArenanwEmt
   fun:_ZN6ThreadC2Ev
   fun:_ZN10JavaThreadC1EPFvPS_P6ThreadEm
   fun:JVM_StartThread
   obj:*
   obj:*
   obj:*
   obj:*
   obj:*
   obj:*
}
{
   <insert_a_suppression_name_here>
   Memcheck:Leak
   match-leak-kinds: reachable
   fun:malloc
   fun:_ZN2os6mallocEmtPh
   fun:_ZN5ArenanwEmt
   fun:_ZN6ThreadC2Ev
   fun:_ZN10JavaThreadC1EPFvPS_P6ThreadEm
   fun:JVM_StartThread
   obj:*
   obj:*
   obj:*
   obj:*
   obj:*
   fun:_ZN9JavaCalls11call_helperEP9JavaValueP12methodHandleP17JavaCallArgumentsP6Thread
}
{
   <insert_a_suppression_name_here>
   Memcheck:Leak
   match-leak-kinds: possible
   fun:malloc
   fun:_ZN2os6mallocEmtPh
   fun:_ZN5ArenanwEmt
   fun:_ZN6ThreadC2Ev
   fun:_ZN11NamedThreadC2Ev
   fun:_ZN8WorkGang15allocate_workerEj
   fun:_ZN8WorkGang18initialize_workersEv
   fun:_ZN16GenCollectedHeapC1EP18GenCollectorPolicy
   fun:_ZN8Universe15initialize_heapEv
   fun:_Z13universe_initv
   fun:_Z12init_globalsv
   fun:_ZN7Threads9create_vmEP14JavaVMInitArgsPb
}
{
   <insert_a_suppression_name_here>
   Memcheck:Leak
   match-leak-kinds: possible
   fun:malloc
   fun:_ZN2os6mallocEmtPh
   fun:_ZN5ArenanwEmt
   fun:_ZN6ThreadC2Ev
   fun:_ZN11NamedThreadC2Ev
   fun:_ZN18ConcurrentGCThreadC2Ev
   fun:_ZN25ConcurrentMarkSweepThread5startEP12CMSCollector
   fun:_ZN12CMSCollectorC1EP29ConcurrentMarkSweepGenerationS1_P11CardTableRSP25ConcurrentMarkSweepPolicy
   fun:_ZN16GenCollectedHeap20create_cms_collectorEv
   fun:_ZN16GenCollectedHeap10initializeEv
   fun:_ZN8Universe15initialize_heapEv
   fun:_Z13universe_initv
}
{
   <insert_a_suppression_name_here>
   Memcheck:Leak
   match-leak-kinds: possible
   fun:malloc
   fun:_ZN2os6mallocEmtPh
   fun:_ZN5ArenanwEmt
   fun:_ZN6ThreadC2Ev
   fun:_ZN10JavaThreadC2EPFvPS_P6ThreadEm
   fun:_ZN21SurrogateLockerThreadC1Ev
   fun:_ZN21SurrogateLockerThread4makeEP6Thread
   fun:_ZN25ConcurrentMarkSweepThread25makeSurrogateLockerThreadEP6Thread
   fun:_ZN7Threads9create_vmEP14JavaVMInitArgsPb
   fun:JNI_CreateJavaVM
   fun:JavaMain
   fun:start_thread
}
{
   <insert_a_suppression_name_here>
   Memcheck:Leak
   match-leak-kinds: possible
   fun:malloc
   fun:_ZN2os6mallocEmtPh
   fun:_ZN5ArenanwEmt
   fun:_ZN6ThreadC2Ev
   fun:_ZN10JavaThreadC1EPFvPS_P6ThreadEm
   fun:_ZN2os11signal_initEv
   fun:_ZN7Threads9create_vmEP14JavaVMInitArgsPb
   fun:JNI_CreateJavaVM
   fun:JavaMain
   fun:start_thread
   fun:clone
}
{
   <insert_a_suppression_name_here>
   Memcheck:Leak
   match-leak-kinds: possible
   fun:malloc
   fun:_ZN2os6mallocEmtPh
   fun:_ZN5ArenanwEmt
   fun:_ZN6ThreadC2Ev
   fun:_ZN14CompilerThreadC1EP12CompileQueueP16CompilerCounters
   fun:_ZN13CompileBroker20make_compiler_threadEPKcP12CompileQueueP16CompilerCountersP6Thread
   fun:_ZN13CompileBroker21init_compiler_threadsEii
   fun:_ZN13CompileBroker16compilation_initEv
   fun:_ZN7Threads9create_vmEP14JavaVMInitArgsPb
   fun:JNI_CreateJavaVM
   fun:JavaMain
   fun:start_thread
}
{
   <insert_a_suppression_name_here>
   Memcheck:Leak
   match-leak-kinds: possible
   fun:malloc
   fun:_ZN2os6mallocEmtPh
   fun:_ZN5ArenanwEmt
   fun:_ZN15ciObjectFactory10initializeEv
   fun:_ZN13CompileBroker20compiler_thread_loopEv
   fun:_ZN10JavaThread17thread_main_innerEv
   fun:_ZN10JavaThread3runEv
   fun:_ZL10java_startP6Thread
   fun:start_thread
   fun:clone
}
{
   <insert_a_suppression_name_here>
   Memcheck:Leak
   match-leak-kinds: possible
   fun:malloc
   fun:_ZN2os6mallocEmtPh
   fun:_ZN5ArenanwEmt
   fun:_ZN6ThreadC2Ev
   fun:_ZN10JavaThreadC2EPFvPS_P6ThreadEm
   fun:_ZN13ServiceThread10initializeEv
   fun:_ZN10Management10initializeEP6Thread
   fun:_ZN7Threads9create_vmEP14JavaVMInitArgsPb
   fun:JNI_CreateJavaVM
   fun:JavaMain
   fun:start_thread
   fun:clone
}
{
   <insert_a_suppression_name_here>
   Memcheck:Leak
   match-leak-kinds: possible
   fun:malloc
   fun:_ZN2os6mallocEmtPh
   fun:_ZN5ArenanwEmt
   fun:_ZN4Type17Initialize_sharedEP7Compile
   fun:_ZN4Type10InitializeEP7Compile
   fun:_ZN7CompileC1EP5ciEnvPFPK8TypeFuncvEPhPKcibbb
   fun:_ZN11OptoRuntime13generate_stubEP5ciEnvPFPK8TypeFuncvEPhPKcibbb
   fun:_ZN11OptoRuntime8generateEP5ciEnv
   fun:_ZN10C2Compiler18initialize_runtimeEv
   fun:_ZN16AbstractCompiler19initialize_runtimesEPFvvEPVi
   fun:_ZN10C2Compiler10initializeEv
   fun:_ZN10C2Compiler14compile_methodEP5ciEnvP8ciMethodi
}
{
   <insert_a_suppression_name_here>
   Memcheck:Leak
   match-leak-kinds: possible
   fun:malloc
   fun:_ZN2os6mallocEmtPh
   fun:_ZN5ArenanwEmt
   fun:_ZN6ThreadC2Ev
   fun:_ZN10JavaThreadC1EPFvPS_P6ThreadEm
   fun:JVM_StartThread
   obj:*
   obj:*
   obj:*
   obj:*
   obj:*
   obj:*
}
{
   <insert_a_suppression_name_here>
   Memcheck:Leak
   match-leak-kinds: possible
   fun:malloc
   fun:_ZN2os6mallocEmtPh
   fun:_ZN5ArenanwEmt
   fun:_ZN6ThreadC2Ev
   fun:_ZN10JavaThreadC1Eb
   fun:attach_current_thread
   fun:jni_DestroyJavaVM
   fun:JavaMain
   fun:start_thread
   fun:clone
}
{
   <insert_a_suppression_name_here>
   Memcheck:Leak
   match-leak-kinds: indirect
   fun:malloc
   fun:_ZN2os6mallocEmtPh
   fun:_ZN5ArenanwEmt
   fun:_ZN6ThreadC2Ev
   fun:_ZN13WatcherThread5startEv
   fun:_ZN7Threads9create_vmEP14JavaVMInitArgsPb
   fun:JNI_CreateJavaVM
   fun:JavaMain
   fun:start_thread
   fun:clone
}
{
   <insert_a_suppression_name_here>
   Memcheck:Leak
   match-leak-kinds: reachable
   fun:malloc
   fun:open_path
   fun:_dl_map_object
   fun:openaux
   fun:_dl_catch_exception
   fun:_dl_map_object_deps
   fun:dl_open_worker
   fun:_dl_catch_exception
   fun:_dl_open
   fun:dlopen_doit
   fun:_dl_catch_exception
   fun:_dl_catch_error
}
{
   <insert_a_suppression_name_here>
   Memcheck:Leak
   match-leak-kinds: definite
   fun:malloc
   fun:JLI_MemAlloc
   fun:SetJavaLauncherPlatformProps
   fun:JLI_Launch
   fun:main
}
{
   <insert_a_suppression_name_here>
   Memcheck:Leak
   match-leak-kinds: reachable
   fun:malloc
   fun:_ZN2os6mallocEmtPh
   fun:_ZN8CHeapObjILt1024EEnwEmPh
   fun:_ZN12StubCodeMarkC1EP17StubCodeGeneratorPKcS3_
   fun:_ZN19ICacheStubGenerator21generate_icache_flushEPPFiPhiiE
   fun:_ZN14AbstractICache10initializeEv
   fun:_Z12init_globalsv
   fun:_ZN7Threads9create_vmEP14JavaVMInitArgsPb
   fun:JNI_CreateJavaVM
   fun:JavaMain
   fun:start_thread
   fun:clone
}
{
   <insert_a_suppression_name_here>
   Memcheck:Leak
   match-leak-kinds: reachable
   fun:malloc
   fun:_ZN2os6mallocEmtPh
   fun:_ZN8CHeapObjILt1024EEnwEmPh
   fun:_ZN12StubCodeMarkC1EP17StubCodeGeneratorPKcS3_
   fun:_ZN24VM_Version_StubGenerator19generate_getPsrInfoEv
   fun:_ZN10VM_Version10initializeEv
   fun:_Z12init_globalsv
   fun:_ZN7Threads9create_vmEP14JavaVMInitArgsPb
   fun:JNI_CreateJavaVM
   fun:JavaMain
   fun:start_thread
   fun:clone
}
{
   <insert_a_suppression_name_here>
   Memcheck:Leak
   match-leak-kinds: reachable
   fun:malloc
   fun:_ZN2os6mallocEmtPh
   fun:_ZN8CHeapObjILt1024EEnwEmPh
   fun:_ZN12StubCodeMarkC1EP17StubCodeGeneratorPKcS3_
   fun:_ZN13StubGenerator16generate_initialEv
   fun:_Z22StubGenerator_generateP10CodeBufferb
   fun:_ZN12StubRoutines11initialize1Ev
   fun:_Z12init_globalsv
   fun:_ZN7Threads9create_vmEP14JavaVMInitArgsPb
   fun:JNI_CreateJavaVM
   fun:JavaMain
   fun:start_thread
}
{
   <insert_a_suppression_name_here>
   Memcheck:Leak
   match-leak-kinds: reachable
   fun:malloc
   fun:_ZN2os6mallocEmtPh
   fun:_ZN8CHeapObjILt1024EEnwEmPh
   fun:_ZN12StubCodeMarkC1EP17StubCodeGeneratorPKcS3_
   fun:_ZN13StubGenerator18generate_call_stubERPh
   fun:_ZN13StubGenerator16generate_initialEv
   fun:_Z22StubGenerator_generateP10CodeBufferb
   fun:_ZN12StubRoutines11initialize1Ev
   fun:_Z12init_globalsv
   fun:_ZN7Threads9create_vmEP14JavaVMInitArgsPb
   fun:JNI_CreateJavaVM
   fun:JavaMain
}
{
   <insert_a_suppression_name_here>
   Memcheck:Leak
   match-leak-kinds: reachable
   fun:malloc
   fun:_ZN2os6mallocEmtPh
   fun:_ZN8CHeapObjILt1280EEnwEmPh
   fun:_ZN24CompactibleFreeListSpaceC1EP22BlockOffsetSharedArray9MemRegionbN19FreeBlockDictionaryI9FreeChunkE16DictionaryChoiceE
   fun:_ZN29ConcurrentMarkSweepGenerationC1E13ReservedSpacemiP11CardTableRSbN19FreeBlockDictionaryI9FreeChunkE16DictionaryChoiceE
   fun:_ZN14GenerationSpec4initE13ReservedSpaceiP9GenRemSet
   fun:_ZN16GenCollectedHeap10initializeEv
   fun:_ZN8Universe15initialize_heapEv
   fun:_Z13universe_initv
   fun:_Z12init_globalsv
   fun:_ZN7Threads9create_vmEP14JavaVMInitArgsPb
   fun:JNI_CreateJavaVM
}
{
   <insert_a_suppression_name_here>
   Memcheck:Leak
   match-leak-kinds: reachable
   fun:malloc
   fun:_ZN2os6mallocEmtPh
   fun:_ZN8CHeapObjILt1280EEnwEmPh
   fun:_ZN24CompactibleFreeListSpaceC1EP22BlockOffsetSharedArray9MemRegionbN19FreeBlockDictionaryI9FreeChunkE16DictionaryChoiceE
   fun:_ZN29ConcurrentMarkSweepGenerationC2E13ReservedSpacemiP11CardTableRSbN19FreeBlockDictionaryI9FreeChunkE16DictionaryChoiceE
   fun:_ZN10CMSPermGenC1E13ReservedSpacemP11CardTableRSN19FreeBlockDictionaryI9FreeChunkE16DictionaryChoiceE
   fun:_ZN23PermanentGenerationSpec4initE13ReservedSpacemP9GenRemSet
   fun:_ZN16GenCollectedHeap10initializeEv
   fun:_ZN8Universe15initialize_heapEv
   fun:_Z13universe_initv
   fun:_Z12init_globalsv
   fun:_ZN7Threads9create_vmEP14JavaVMInitArgsPb
}
{
   <insert_a_suppression_name_here>
   Memcheck:Leak
   match-leak-kinds: reachable
   fun:malloc
   fun:_ZN2os6mallocEmtPh
   fun:_ZN8CHeapObjILt2304EEnwEmPh
   fun:_Z13universe_initv
   fun:_Z12init_globalsv
   fun:_ZN7Threads9create_vmEP14JavaVMInitArgsPb
   fun:JNI_CreateJavaVM
   fun:JavaMain
   fun:start_thread
   fun:clone
}
{
   <insert_a_suppression_name_here>
   Memcheck:Leak
   match-leak-kinds: reachable
   fun:malloc
   fun:_ZN2os6mallocEmtPh
   fun:_ZN8CHeapObjILt256EEnwEmPh
   fun:_ZN11ClassLoader25create_package_info_tableEv
   fun:_Z13universe_initv
   fun:_Z12init_globalsv
   fun:_ZN7Threads9create_vmEP14JavaVMInitArgsPb
   fun:JNI_CreateJavaVM
   fun:JavaMain
   fun:start_thread
   fun:clone
}
{
   <insert_a_suppression_name_here>
   Memcheck:Leak
   match-leak-kinds: reachable
   fun:malloc
   fun:_ZN2os6mallocEmtPh
   fun:_ZN8CHeapObjILt256EEnwEmPh
   fun:_ZN16SystemDictionary10initializeEP6Thread
   fun:_ZN8Universe7genesisEP6Thread
   fun:_Z14universe2_initv
   fun:_Z12init_globalsv
   fun:_ZN7Threads9create_vmEP14JavaVMInitArgsPb
   fun:JNI_CreateJavaVM
   fun:JavaMain
   fun:start_thread
   fun:clone
}
{
   <insert_a_suppression_name_here>
   Memcheck:Leak
   match-leak-kinds: reachable
   fun:malloc
   fun:_ZN2os6mallocEmtPh
   fun:_ZN8CHeapObjILt2304EEnwEmPh
   fun:_ZN16SystemDictionary10initializeEP6Thread
   fun:_ZN8Universe7genesisEP6Thread
   fun:_Z14universe2_initv
   fun:_Z12init_globalsv
   fun:_ZN7Threads9create_vmEP14JavaVMInitArgsPb
   fun:JNI_CreateJavaVM
   fun:JavaMain
   fun:start_thread
   fun:clone
}
{
   <insert_a_suppression_name_here>
   Memcheck:Leak
   match-leak-kinds: reachable
   fun:malloc
   fun:_ZN2os6mallocEmtPh
   fun:_ZN11ResourceObjnwEmNS_15allocation_typeEt
   fun:_ZN15GCMemoryManager23initialize_gc_stat_infoEv
   fun:_ZN13MemoryService17set_universe_heapEP13CollectedHeap
   fun:_Z18universe_post_initv
   fun:_Z12init_globalsv
   fun:_ZN7Threads9create_vmEP14JavaVMInitArgsPb
   fun:JNI_CreateJavaVM
   fun:JavaMain
   fun:start_thread
   fun:clone
}
{
   <insert_a_suppression_name_here>
   Memcheck:Leak
   match-leak-kinds: reachable
   fun:malloc
   fun:_ZN2os6mallocEmtPh
   fun:_ZN8CHeapObjILt1024EEnwEmPh
   fun:_ZN12StubCodeMarkC1EP17StubCodeGeneratorPKcS3_
   fun:_ZN13StubGenerator12generate_allEv
   fun:_Z22StubGenerator_generateP10CodeBufferb
   fun:_ZN12StubRoutines11initialize2Ev
   fun:_Z12init_globalsv
   fun:_ZN7Threads9create_vmEP14JavaVMInitArgsPb
   fun:JNI_CreateJavaVM
   fun:JavaMain
   fun:start_thread
}
{
   <insert_a_suppression_name_here>
   Memcheck:Leak
   match-leak-kinds: reachable
   fun:malloc
   fun:_ZN2os6mallocEmtPh
   fun:_ZN8CHeapObjILt1024EEnwEmPh
   fun:_ZN12StubCodeMarkC1EP17StubCodeGeneratorPKcS3_
   fun:_ZN13StubGenerator18generate_d2i_fixupEv
   fun:_ZN13StubGenerator12generate_allEv
   fun:_Z22StubGenerator_generateP10CodeBufferb
   fun:_ZN12StubRoutines11initialize2Ev
   fun:_Z12init_globalsv
   fun:_ZN7Threads9create_vmEP14JavaVMInitArgsPb
   fun:JNI_CreateJavaVM
   fun:JavaMain
}
{
   <insert_a_suppression_name_here>
   Memcheck:Leak
   match-leak-kinds: reachable
   fun:malloc
   fun:_ZN2os6mallocEmtPh
   fun:_ZN8CHeapObjILt1024EEnwEmPh
   fun:_ZN12StubCodeMarkC1EP17StubCodeGeneratorPKcS3_
   fun:_ZN13StubGenerator18generate_d2l_fixupEv
   fun:_ZN13StubGenerator12generate_allEv
   fun:_Z22StubGenerator_generateP10CodeBufferb
   fun:_ZN12StubRoutines11initialize2Ev
   fun:_Z12init_globalsv
   fun:_ZN7Threads9create_vmEP14JavaVMInitArgsPb
   fun:JNI_CreateJavaVM
   fun:JavaMain
}
{
   <insert_a_suppression_name_here>
   Memcheck:Leak
   match-leak-kinds: reachable
   fun:malloc
   fun:_ZN2os6mallocEmtPh
   fun:_ZN8CHeapObjILt1024EEnwEmPh
   fun:_ZN12StubCodeMarkC1EP17StubCodeGeneratorPKcS3_
   fun:_ZN13StubGenerator19generate_verify_oopEv
   fun:_ZN13StubGenerator12generate_allEv
   fun:_Z22StubGenerator_generateP10CodeBufferb
   fun:_ZN12StubRoutines11initialize2Ev
   fun:_Z12init_globalsv
   fun:_ZN7Threads9create_vmEP14JavaVMInitArgsPb
   fun:JNI_CreateJavaVM
   fun:JavaMain
}
{
   <insert_a_suppression_name_here>
   Memcheck:Leak
   match-leak-kinds: reachable
   fun:malloc
   fun:_ZN2os6mallocEmtPh
   fun:_ZN8CHeapObjILt1024EEnwEmPh
   fun:_ZN12StubCodeMarkC1EP17StubCodeGeneratorPKcS3_
   fun:_ZN13StubGenerator27generate_disjoint_byte_copyEbPPhPKc
   fun:_ZN13StubGenerator24generate_arraycopy_stubsEv
   fun:_ZN13StubGenerator12generate_allEv
   fun:_Z22StubGenerator_generateP10CodeBufferb
   fun:_ZN12StubRoutines11initialize2Ev
   fun:_Z12init_globalsv
   fun:_ZN7Threads9create_vmEP14JavaVMInitArgsPb
   fun:JNI_CreateJavaVM
}
{
   <insert_a_suppression_name_here>
   Memcheck:Leak
   match-leak-kinds: reachable
   fun:malloc
   fun:_ZN2os6mallocEmtPh
   fun:_ZN8CHeapObjILt1024EEnwEmPh
   fun:_ZN12StubCodeMarkC1EP17StubCodeGeneratorPKcS3_
   fun:_ZN13StubGenerator27generate_conjoint_byte_copyEbPhPS0_PKc
   fun:_ZN13StubGenerator24generate_arraycopy_stubsEv
   fun:_ZN13StubGenerator12generate_allEv
   fun:_Z22StubGenerator_generateP10CodeBufferb
   fun:_ZN12StubRoutines11initialize2Ev
   fun:_Z12init_globalsv
   fun:_ZN7Threads9create_vmEP14JavaVMInitArgsPb
   fun:JNI_CreateJavaVM
}
{
   <insert_a_suppression_name_here>
   Memcheck:Leak
   match-leak-kinds: reachable
   fun:malloc
   fun:_ZN2os6mallocEmtPh
   fun:_ZN8CHeapObjILt1024EEnwEmPh
   fun:_ZN12StubCodeMarkC1EP17StubCodeGeneratorPKcS3_
   fun:_ZN13StubGenerator28generate_disjoint_short_copyEbPPhPKc
   fun:_ZN13StubGenerator24generate_arraycopy_stubsEv
   fun:_ZN13StubGenerator12generate_allEv
   fun:_Z22StubGenerator_generateP10CodeBufferb
   fun:_ZN12StubRoutines11initialize2Ev
   fun:_Z12init_globalsv
   fun:_ZN7Threads9create_vmEP14JavaVMInitArgsPb
   fun:JNI_CreateJavaVM
}
{
   <insert_a_suppression_name_here>
   Memcheck:Leak
   match-leak-kinds: reachable
   fun:malloc
   fun:_ZN2os6mallocEmtPh
   fun:_ZN8CHeapObjILt1024EEnwEmPh
   fun:_ZN12StubCodeMarkC1EP17StubCodeGeneratorPKcS3_
   fun:_ZN13StubGenerator28generate_conjoint_short_copyEbPhPS0_PKc
   fun:_ZN13StubGenerator24generate_arraycopy_stubsEv
   fun:_ZN13StubGenerator12generate_allEv
   fun:_Z22StubGenerator_generateP10CodeBufferb
   fun:_ZN12StubRoutines11initialize2Ev
   fun:_Z12init_globalsv
   fun:_ZN7Threads9create_vmEP14JavaVMInitArgsPb
   fun:JNI_CreateJavaVM
}
{
   <insert_a_suppression_name_here>
   Memcheck:Leak
   match-leak-kinds: reachable
   fun:malloc
   fun:_ZN2os6mallocEmtPh
   fun:_ZN8CHeapObjILt1024EEnwEmPh
   fun:_ZN12StubCodeMarkC1EP17StubCodeGeneratorPKcS3_
   fun:_ZN13StubGenerator30generate_disjoint_int_oop_copyEbbPPhPKcb
   fun:_ZN13StubGenerator24generate_arraycopy_stubsEv
   fun:_ZN13StubGenerator12generate_allEv
   fun:_Z22StubGenerator_generateP10CodeBufferb
   fun:_ZN12StubRoutines11initialize2Ev
   fun:_Z12init_globalsv
   fun:_ZN7Threads9create_vmEP14JavaVMInitArgsPb
   fun:JNI_CreateJavaVM
}
{
   <insert_a_suppression_name_here>
   Memcheck:Leak
   match-leak-kinds: reachable
   fun:malloc
   fun:_ZN2os6mallocEmtPh
   fun:_ZN8CHeapObjILt1024EEnwEmPh
   fun:_ZN12StubCodeMarkC1EP17StubCodeGeneratorPKcS3_
   fun:_ZN13StubGenerator30generate_conjoint_int_oop_copyEbbPhPS0_PKcb
   fun:_ZN13StubGenerator24generate_arraycopy_stubsEv
   fun:_ZN13StubGenerator12generate_allEv
   fun:_Z22StubGenerator_generateP10CodeBufferb
   fun:_ZN12StubRoutines11initialize2Ev
   fun:_Z12init_globalsv
   fun:_ZN7Threads9create_vmEP14JavaVMInitArgsPb
   fun:JNI_CreateJavaVM
}
{
   <insert_a_suppression_name_here>
   Memcheck:Leak
   match-leak-kinds: reachable
   fun:malloc
   fun:_ZN2os6mallocEmtPh
   fun:_ZN8CHeapObjILt1024EEnwEmPh
   fun:_ZN12StubCodeMarkC1EP17StubCodeGeneratorPKcS3_
   fun:_ZN13StubGenerator31generate_disjoint_long_oop_copyEbbPPhPKcb
   fun:_ZN13StubGenerator24generate_arraycopy_stubsEv
   fun:_ZN13StubGenerator12generate_allEv
   fun:_Z22StubGenerator_generateP10CodeBufferb
   fun:_ZN12StubRoutines11initialize2Ev
   fun:_Z12init_globalsv
   fun:_ZN7Threads9create_vmEP14JavaVMInitArgsPb
   fun:JNI_CreateJavaVM
}
{
   <insert_a_suppression_name_here>
   Memcheck:Leak
   match-leak-kinds: reachable
   fun:malloc
   fun:_ZN2os6mallocEmtPh
   fun:_ZN8CHeapObjILt1024EEnwEmPh
   fun:_ZN12StubCodeMarkC1EP17StubCodeGeneratorPKcS3_
   fun:_ZN13StubGenerator31generate_conjoint_long_oop_copyEbbPhPS0_PKcb
   fun:_ZN13StubGenerator24generate_arraycopy_stubsEv
   fun:_ZN13StubGenerator12generate_allEv
   fun:_Z22StubGenerator_generateP10CodeBufferb
   fun:_ZN12StubRoutines11initialize2Ev
   fun:_Z12init_globalsv
   fun:_ZN7Threads9create_vmEP14JavaVMInitArgsPb
   fun:JNI_CreateJavaVM
}
{
   <insert_a_suppression_name_here>
   Memcheck:Leak
   match-leak-kinds: reachable
   fun:malloc
   fun:_ZN2os6mallocEmtPh
   fun:_ZN8CHeapObjILt1024EEnwEmPh
   fun:_ZN12StubCodeMarkC1EP17StubCodeGeneratorPKcS3_
   fun:_ZN13StubGenerator23generate_checkcast_copyEPKcPPhb
   fun:_ZN13StubGenerator24generate_arraycopy_stubsEv
   fun:_ZN13StubGenerator12generate_allEv
   fun:_Z22StubGenerator_generateP10CodeBufferb
   fun:_ZN12StubRoutines11initialize2Ev
   fun:_Z12init_globalsv
   fun:_ZN7Threads9create_vmEP14JavaVMInitArgsPb
   fun:JNI_CreateJavaVM
}
{
   <insert_a_suppression_name_here>
   Memcheck:Leak
   match-leak-kinds: reachable
   fun:malloc
   fun:_ZN2os6mallocEmtPh
   fun:_ZN8CHeapObjILt1024EEnwEmPh
   fun:_ZN12StubCodeMarkC1EP17StubCodeGeneratorPKcS3_
   fun:_ZN13StubGenerator24generate_arraycopy_stubsEv
   fun:_ZN13StubGenerator12generate_allEv
   fun:_Z22StubGenerator_generateP10CodeBufferb
   fun:_ZN12StubRoutines11initialize2Ev
   fun:_Z12init_globalsv
   fun:_ZN7Threads9create_vmEP14JavaVMInitArgsPb
   fun:JNI_CreateJavaVM
   fun:JavaMain
}
{
   <insert_a_suppression_name_here>
   Memcheck:Leak
   match-leak-kinds: reachable
   fun:malloc
   fun:_ZN2os6mallocEmtPh
   fun:_ZN8CHeapObjILt1024EEnwEmPh
   fun:_ZN12StubCodeMarkC1EP17StubCodeGeneratorPKcS3_
   fun:_ZN13StubGenerator21generate_generic_copyEPKcPhS2_S2_S2_S2_S2_
   fun:_ZN13StubGenerator24generate_arraycopy_stubsEv
   fun:_ZN13StubGenerator12generate_allEv
   fun:_Z22StubGenerator_generateP10CodeBufferb
   fun:_ZN12StubRoutines11initialize2Ev
   fun:_Z12init_globalsv
   fun:_ZN7Threads9create_vmEP14JavaVMInitArgsPb
   fun:JNI_CreateJavaVM
}
{
   <insert_a_suppression_name_here>
   Memcheck:Leak
   match-leak-kinds: reachable
   fun:malloc
   fun:_ZN2os6mallocEmtPh
   fun:_ZN8CHeapObjILt1024EEnwEmPh
   fun:_ZN12StubCodeMarkC1EP17StubCodeGeneratorPKcS3_
   fun:_ZN13StubGenerator19generate_math_stubsEv
   fun:_ZN13StubGenerator12generate_allEv
   fun:_Z22StubGenerator_generateP10CodeBufferb
   fun:_ZN12StubRoutines11initialize2Ev
   fun:_Z12init_globalsv
   fun:_ZN7Threads9create_vmEP14JavaVMInitArgsPb
   fun:JNI_CreateJavaVM
   fun:JavaMain
}
{
   <insert_a_suppression_name_here>
   Memcheck:Leak
   match-leak-kinds: reachable
   fun:malloc
   fun:_ZN2os6mallocEmtPh
   fun:_ZN8CHeapObjILt1024EEnwEmPh
   fun:_ZN12StubCodeMarkC1EP17StubCodeGeneratorPKcS3_
   fun:_ZN13StubGenerator30generate_aescrypt_encryptBlockEv
   fun:_ZN13StubGenerator12generate_allEv
   fun:_Z22StubGenerator_generateP10CodeBufferb
   fun:_ZN12StubRoutines11initialize2Ev
   fun:_Z12init_globalsv
   fun:_ZN7Threads9create_vmEP14JavaVMInitArgsPb
   fun:JNI_CreateJavaVM
   fun:JavaMain
}
{
   <insert_a_suppression_name_here>
   Memcheck:Leak
   match-leak-kinds: reachable
   fun:malloc
   fun:_ZN2os6mallocEmtPh
   fun:_ZN8CHeapObjILt1024EEnwEmPh
   fun:_ZN12StubCodeMarkC1EP17StubCodeGeneratorPKcS3_
   fun:_ZN13StubGenerator30generate_aescrypt_decryptBlockEv
   fun:_ZN13StubGenerator12generate_allEv
   fun:_Z22StubGenerator_generateP10CodeBufferb
   fun:_ZN12StubRoutines11initialize2Ev
   fun:_Z12init_globalsv
   fun:_ZN7Threads9create_vmEP14JavaVMInitArgsPb
   fun:JNI_CreateJavaVM
   fun:JavaMain
}
{
   <insert_a_suppression_name_here>
   Memcheck:Leak
   match-leak-kinds: reachable
   fun:malloc
   fun:_ZN2os6mallocEmtPh
   fun:_ZN8CHeapObjILt1024EEnwEmPh
   fun:_ZN12StubCodeMarkC1EP17StubCodeGeneratorPKcS3_
   fun:_ZN13StubGenerator44generate_cipherBlockChaining_encryptAESCryptEv
   fun:_ZN13StubGenerator12generate_allEv
   fun:_Z22StubGenerator_generateP10CodeBufferb
   fun:_ZN12StubRoutines11initialize2Ev
   fun:_Z12init_globalsv
   fun:_ZN7Threads9create_vmEP14JavaVMInitArgsPb
   fun:JNI_CreateJavaVM
   fun:JavaMain
}
{
   <insert_a_suppression_name_here>
   Memcheck:Leak
   match-leak-kinds: reachable
   fun:malloc
   fun:_ZN2os6mallocEmtPh
   fun:_ZN8CHeapObjILt1024EEnwEmPh
   fun:_ZN12StubCodeMarkC1EP17StubCodeGeneratorPKcS3_
   fun:_ZN13StubGenerator53generate_cipherBlockChaining_decryptAESCrypt_ParallelEv
   fun:_ZN13StubGenerator12generate_allEv
   fun:_Z22StubGenerator_generateP10CodeBufferb
   fun:_ZN12StubRoutines11initialize2Ev
   fun:_Z12init_globalsv
   fun:_ZN7Threads9create_vmEP14JavaVMInitArgsPb
   fun:JNI_CreateJavaVM
   fun:JavaMain
}
{
   <insert_a_suppression_name_here>
   Memcheck:Leak
   match-leak-kinds: reachable
   fun:malloc
   fun:_ZN2os6mallocEmtPh
   fun:_ZN6SymbolnwEmiP6Thread
   fun:_ZN11SymbolTable15allocate_symbolEPKhibP6Thread
   fun:_ZN11SymbolTable9basic_addEiPhijbP6Thread
   fun:_ZN11SymbolTable6lookupEPKciP6Thread
   fun:JVM_FindClassFromCaller
   fun:Java_java_lang_Class_forName0
   obj:*
   obj:*
   obj:*
   obj:*
}
{
   <insert_a_suppression_name_here>
   Memcheck:Leak
   match-leak-kinds: reachable
   fun:malloc
   fun:_ZN2os6mallocEmtPh
   fun:_ZN5ArenanwEmt
   fun:_ZN6ThreadC2Ev
   fun:_ZN10JavaThreadC2EPFvPS_P6ThreadEm
   fun:_ZN21SurrogateLockerThreadC1Ev
   fun:_ZN21SurrogateLockerThread4makeEP6Thread
   fun:_ZN25ConcurrentMarkSweepThread25makeSurrogateLockerThreadEP6Thread
   fun:_ZN7Threads9create_vmEP14JavaVMInitArgsPb
   fun:JNI_CreateJavaVM
   fun:JavaMain
   fun:start_thread
}
{
   <insert_a_suppression_name_here>
   Memcheck:Leak
   match-leak-kinds: reachable
   fun:malloc
   fun:_ZN2os6mallocEmtPh
   fun:_ZN5ArenanwEmt
   fun:_ZN6ThreadC2Ev
   fun:_ZN10JavaThreadC1EPFvPS_P6ThreadEm
   fun:_ZN2os11signal_initEv
   fun:_ZN7Threads9create_vmEP14JavaVMInitArgsPb
   fun:JNI_CreateJavaVM
   fun:JavaMain
   fun:start_thread
   fun:clone
}
{
   <insert_a_suppression_name_here>
   Memcheck:Leak
   match-leak-kinds: reachable
   fun:malloc
   fun:_ZN2os6mallocEmtPh
   fun:_ZN5ArenanwEmt
   fun:_ZN6ThreadC2Ev
   fun:_ZN10JavaThreadC2EPFvPS_P6ThreadEm
   fun:_ZN13ServiceThread10initializeEv
   fun:_ZN10Management10initializeEP6Thread
   fun:_ZN7Threads9create_vmEP14JavaVMInitArgsPb
   fun:JNI_CreateJavaVM
   fun:JavaMain
   fun:start_thread
   fun:clone
}
{
   <insert_a_suppression_name_here>
   Memcheck:Leak
   match-leak-kinds: reachable
   fun:malloc
   fun:_ZN2os6mallocEmtPh
   fun:_ZN8CHeapObjILt1024EEnwEmPh
   fun:_ZN21AdapterHandlerLibrary11get_adapterE12methodHandle
   fun:_ZN13methodOopDesc13make_adaptersE12methodHandleP6Thread
   fun:_ZN8Rewriter17relocate_and_linkE19instanceKlassHandle14objArrayHandleP6Thread
   fun:_ZN13instanceKlass15link_class_implE19instanceKlassHandlebP6Thread
   fun:_ZN13instanceKlass15link_class_implE19instanceKlassHandlebP6Thread
   fun:_Z18universe_post_initv
   fun:_Z12init_globalsv
   fun:_ZN7Threads9create_vmEP14JavaVMInitArgsPb
   fun:JNI_CreateJavaVM
}
{
   <insert_a_suppression_name_here>
   Memcheck:Leak
   match-leak-kinds: reachable
   fun:malloc
   fun:_ZN2os6mallocEmtPh
   fun:_ZN8CHeapObjILt1024EEnwEmPh
   fun:_ZN21AdapterHandlerLibrary11get_adapterE12methodHandle
   fun:_ZN13methodOopDesc13make_adaptersE12methodHandleP6Thread
   fun:_ZN8Rewriter17relocate_and_linkE19instanceKlassHandle14objArrayHandleP6Thread
   fun:_ZN13instanceKlass15link_class_implE19instanceKlassHandlebP6Thread
   fun:_ZN13instanceKlass15initialize_implE19instanceKlassHandleP6Thread
   fun:_ZN13instanceKlass10initializeEP6Thread
   fun:_ZN23java_lang_reflect_Field6createEP6Thread
   fun:_ZN10Reflection9new_fieldEP15fieldDescriptorbP6Thread
   fun:JVM_GetClassDeclaredFields
}
{
   <insert_a_suppression_name_here>
   Memcheck:Leak
   match-leak-kinds: reachable
   fun:malloc
   fun:_ZN2os6mallocEmtPh
   fun:_ZN8CHeapObjILt1024EEnwEmPh
   fun:_ZN21AdapterHandlerLibrary11get_adapterE12methodHandle
   fun:_ZN13methodOopDesc13make_adaptersE12methodHandleP6Thread
   fun:_ZN8Rewriter17relocate_and_linkE19instanceKlassHandle14objArrayHandleP6Thread
   fun:_ZN13instanceKlass15link_class_implE19instanceKlassHandlebP6Thread
   fun:_ZN13instanceKlass15link_class_implE19instanceKlassHandlebP6Thread
   fun:_ZN13instanceKlass15initialize_implE19instanceKlassHandleP6Thread
   fun:_ZN13instanceKlass10initializeEP6Thread
   fun:_Z28find_class_from_class_loaderP7JNIEnv_P6Symbolh6HandleS3_hP6Thread
   fun:JVM_FindClassFromCaller
}
{
   <insert_a_suppression_name_here>
   Memcheck:Leak
   match-leak-kinds: reachable
   fun:malloc
   fun:_ZN2os6mallocEmtPh
   fun:_ZN8CHeapObjILt1024EEnwEmPh
   fun:_ZN21AdapterHandlerLibrary11get_adapterE12methodHandle
   fun:_ZN13methodOopDesc13make_adaptersE12methodHandleP6Thread
   fun:_ZN8Rewriter17relocate_and_linkE19instanceKlassHandle14objArrayHandleP6Thread
   fun:_ZN13instanceKlass15link_class_implE19instanceKlassHandlebP6Thread
   fun:_ZN13instanceKlass15initialize_implE19instanceKlassHandleP6Thread
   fun:_ZN13instanceKlass10initializeEP6Thread
   fun:_ZL13get_method_idP7JNIEnv_P7_jclassPKcS4_bP6Thread
   fun:jni_GetStaticMethodID
   fun:JavaMain
}
{
   <insert_a_suppression_name_here>
   Memcheck:Leak
   match-leak-kinds: reachable
   fun:malloc
   fun:_ZN2os6mallocEmtPh
   fun:_ZN8CHeapObjILt1024EEnwEmPh
   fun:_ZN21AdapterHandlerLibrary11get_adapterE12methodHandle
   fun:_ZN13methodOopDesc13make_adaptersE12methodHandleP6Thread
   fun:_ZN8Rewriter17relocate_and_linkE19instanceKlassHandle14objArrayHandleP6Thread
   fun:_ZN13instanceKlass15link_class_implE19instanceKlassHandlebP6Thread
   fun:_ZN13instanceKlass15initialize_implE19instanceKlassHandleP6Thread
   fun:_ZN13instanceKlass10initializeEP6Thread
   fun:Unsafe_EnsureClassInitialized
   obj:*
   obj:*
}
{
   <insert_a_suppression_name_here>
   Memcheck:Leak
   match-leak-kinds: reachable
   fun:malloc
   fun:_ZN2os6mallocEmtPh
   fun:_ZN8CHeapObjILt1024EEnwEmPh
   fun:_ZN21AdapterHandlerLibrary11get_adapterE12methodHandle
   fun:_ZN13methodOopDesc13make_adaptersE12methodHandleP6Thread
   fun:_ZN8Rewriter17relocate_and_linkE19instanceKlassHandle14objArrayHandleP6Thread
   fun:_ZN13instanceKlass15link_class_implE19instanceKlassHandlebP6Thread
   fun:_ZN13instanceKlass15initialize_implE19instanceKlassHandleP6Thread
   fun:_ZN13instanceKlass10initializeEP6Thread
   fun:_Z28find_class_from_class_loaderP7JNIEnv_P6Symbolh6HandleS3_hP6Thread
   fun:jni_FindClass
   fun:Java_java_net_Inet6Address_init
}
{
   <insert_a_suppression_name_here>
   Memcheck:Leak
   match-leak-kinds: possible
   fun:malloc
   fun:_ZN2os6mallocEmtPh
   fun:_ZN8CHeapObjILt1792EEnwEmPh
   fun:_ZN20ThreadSafepointState6createEP10JavaThread
   fun:_ZN10JavaThread10initializeEv
   fun:_ZN10JavaThreadC1EPFvPS_P6ThreadEm
   fun:JVM_StartThread
   obj:*
   obj:*
   obj:*
   obj:*
   fun:_ZN9JavaCalls11call_helperEP9JavaValueP12methodHandleP17JavaCallArgumentsP6Thread
}
{
   <insert_a_suppression_name_here>
   Memcheck:Leak
   match-leak-kinds: possible
   fun:malloc
   fun:_ZN2os6mallocEmtPh
   fun:_ZN8CHeapObjILt1792EEnwEmPh
   fun:_ZN20ThreadSafepointState6createEP10JavaThread
   fun:_ZN10JavaThread10initializeEv
   fun:_ZN14CompilerThreadC1EP12CompileQueueP16CompilerCounters
   fun:_ZN13CompileBroker20make_compiler_threadEPKcP12CompileQueueP16CompilerCountersP6Thread
   fun:_ZN13CompileBroker21init_compiler_threadsEii
   fun:_ZN13CompileBroker16compilation_initEv
   fun:_ZN7Threads9create_vmEP14JavaVMInitArgsPb
   fun:JNI_CreateJavaVM
   fun:JavaMain
}
{
   <insert_a_suppression_name_here>
   Memcheck:Leak
   match-leak-kinds: possible
   fun:malloc
   fun:_ZN2os6mallocEmtPh
   fun:_ZN8CHeapObjILt256EEnwEmPh
   fun:_ZN10Dictionary21add_protection_domainEij19instanceKlassHandle6HandleS1_P6Thread
   fun:_ZN16SystemDictionary26validate_protection_domainE19instanceKlassHandle6HandleS1_P6Thread
   fun:_ZN16SystemDictionary30resolve_instance_class_or_nullEP6Symbol6HandleS2_P6Thread
   fun:_ZN16SystemDictionary15resolve_or_nullEP6Symbol6HandleS2_P6Thread
   fun:_ZN16SystemDictionary21resolve_super_or_failEP6SymbolS1_6HandleS2_bP6Thread
   fun:_ZN15ClassFileParser16parse_interfacesE18constantPoolHandlei6HandleS1_P6SymbolP6Thread
   fun:_ZN15ClassFileParser14parseClassFileEP6Symbol6HandleS2_11KlassHandleP13GrowableArrayIS2_ER13TempNewSymbolbP6Thread
   fun:_ZN16SystemDictionary19resolve_from_streamEP6Symbol6HandleS2_P15ClassFileStreambP6Thread
   fun:_ZL23jvm_define_class_commonP7JNIEnv_PKcP8_jobjectPKaiS4_S2_hP6Thread
}
{
   <insert_a_suppression_name_here>
   Memcheck:Leak
   match-leak-kinds: possible
   fun:malloc
   fun:_ZN2os6mallocEmtPh
   fun:_ZN8CHeapObjILt256EEnwEmPh
   fun:_ZN10Dictionary21add_protection_domainEij19instanceKlassHandle6HandleS1_P6Thread
   fun:_ZN16SystemDictionary26validate_protection_domainE19instanceKlassHandle6HandleS1_P6Thread
   fun:_ZN16SystemDictionary30resolve_instance_class_or_nullEP6Symbol6HandleS2_P6Thread
   fun:_ZN16SystemDictionary15resolve_or_nullEP6Symbol6HandleS2_P6Thread
   fun:_ZN16SystemDictionary15resolve_or_failEP6Symbol6HandleS2_bP6Thread
   fun:_ZN19constantPoolOopDesc13klass_at_implE18constantPoolHandleiP6Thread
   fun:_ZN12LinkResolver20resolve_invokestaticER8CallInfo18constantPoolHandleiP6Thread
   fun:_ZN18InterpreterRuntime14resolve_invokeEP10JavaThreadN9Bytecodes4CodeE
   obj:*
}
{
   <insert_a_suppression_name_here>
   Memcheck:Leak
   match-leak-kinds: possible
   fun:malloc
   fun:_ZN2os6mallocEmtPh
   fun:_Z12AllocateHeapmtPhN17AllocFailStrategy13AllocFailEnumE
   fun:_ZN21LoaderConstraintTable9add_entryEP6SymbolP12klassOopDesc6HandleS3_S4_
   fun:_ZN16SystemDictionary21add_loader_constraintEP6Symbol6HandleS2_P6Thread
   fun:_ZN16SystemDictionary23check_signature_loadersEP6Symbol6HandleS2_bP6Thread
   fun:_ZN11klassVtable23update_inherited_vtableEP13instanceKlass12methodHandleibP6Thread
   fun:_ZN11klassVtable17initialize_vtableEbP6Thread
   fun:_ZN13instanceKlass15link_class_implE19instanceKlassHandlebP6Thread
   fun:_ZN13instanceKlass15link_class_implE19instanceKlassHandlebP6Thread
   fun:_ZN13instanceKlass15initialize_implE19instanceKlassHandleP6Thread
   fun:_ZN13instanceKlass10initializeEP6Thread
}
{
   <insert_a_suppression_name_here>
   Memcheck:Leak
   match-leak-kinds: possible
   fun:malloc
   fun:_ZN2os6mallocEmtPh
   fun:_Z12AllocateHeapmtPhN17AllocFailStrategy13AllocFailEnumE
   fun:_ZN21LoaderConstraintTable9add_entryEP6SymbolP12klassOopDesc6HandleS3_S4_
   fun:_ZN16SystemDictionary21add_loader_constraintEP6Symbol6HandleS2_P6Thread
   fun:_ZN16SystemDictionary23check_signature_loadersEP6Symbol6HandleS2_bP6Thread
   fun:_ZN12LinkResolver14resolve_methodER12methodHandle11KlassHandleP6SymbolS4_S2_bP6Thread
   fun:_ZN12LinkResolver31linktime_resolve_special_methodER12methodHandle11KlassHandleP6SymbolS4_S2_bP6Thread
   fun:_ZN12LinkResolver20resolve_special_callER8CallInfo11KlassHandleP6SymbolS4_S2_bP6Thread
   fun:_ZN12LinkResolver21resolve_invokespecialER8CallInfo18constantPoolHandleiP6Thread
   fun:_ZN18InterpreterRuntime14resolve_invokeEP10JavaThreadN9Bytecodes4CodeE
   obj:*
}
{
   <insert_a_suppression_name_here>
   Memcheck:Leak
   match-leak-kinds: possible
   fun:malloc
   fun:_ZN2os6mallocEmtPh
   fun:_Z12AllocateHeapmtPhN17AllocFailStrategy13AllocFailEnumE
   fun:_ZN21LoaderConstraintTable9add_entryEP6SymbolP12klassOopDesc6HandleS3_S4_
   fun:_ZN16SystemDictionary21add_loader_constraintEP6Symbol6HandleS2_P6Thread
   fun:_ZN16SystemDictionary23check_signature_loadersEP6Symbol6HandleS2_bP6Thread
   fun:_ZN11klassVtable23update_inherited_vtableEP13instanceKlass12methodHandleibP6Thread
   fun:_ZN11klassVtable17initialize_vtableEbP6Thread
   fun:_ZN13instanceKlass15link_class_implE19instanceKlassHandlebP6Thread
   fun:_ZN13instanceKlass15initialize_implE19instanceKlassHandleP6Thread
   fun:_ZN13instanceKlass10initializeEP6Thread
   fun:_ZN18InterpreterRuntime4_newEP10JavaThreadP19constantPoolOopDesci
}
{
   <insert_a_suppression_name_here>
   Memcheck:Leak
   match-leak-kinds: reachable
   fun:malloc
   fun:_ZN2os6mallocEmtPh
   fun:_Z12AllocateHeapmtPhN17AllocFailStrategy13AllocFailEnumE
   fun:_ZN11ClassLoader11add_packageEPKciP6Thread
   fun:_ZN11ClassLoader14load_classfileEP6SymbolP6Thread
   fun:_ZN16SystemDictionary19load_instance_classEP6Symbol6HandleP6Thread
   fun:_ZN16SystemDictionary30resolve_instance_class_or_nullEP6Symbol6HandleS2_P6Thread
   fun:_ZN16SystemDictionary15resolve_or_nullEP6Symbol6HandleS2_P6Thread
   fun:_ZN16SystemDictionary15resolve_or_failEP6Symbol6HandleS2_bP6Thread
   fun:_ZN19constantPoolOopDesc13klass_at_implE18constantPoolHandleiP6Thread
   fun:_ZN18InterpreterRuntime9anewarrayEP10JavaThreadP19constantPoolOopDescii
   obj:*
}
{
   <insert_a_suppression_name_here>
   Memcheck:Leak
   match-leak-kinds: reachable
   fun:malloc
   fun:strdup
   fun:_dl_map_object
   fun:dl_open_worker
   fun:_dl_catch_exception
   fun:_dl_open
   fun:dlopen_doit
   fun:_dl_catch_exception
   fun:_dl_catch_error
   fun:_dlerror_run
   fun:dlopen@@GLIBC_2.2.5
   fun:LoadJavaVM
}
{
   <insert_a_suppression_name_here>
   Memcheck:Leak
   match-leak-kinds: possible
   fun:malloc
   fun:_ZN2os6mallocEmtPh
   fun:_Z12AllocateHeapmtPhN17AllocFailStrategy13AllocFailEnumE
   fun:_ZN11ClassLoader11add_packageEPKciP6Thread
   fun:_ZN11ClassLoader14load_classfileEP6SymbolP6Thread
   fun:_ZN16SystemDictionary19load_instance_classEP6Symbol6HandleP6Thread
   fun:_ZN16SystemDictionary30resolve_instance_class_or_nullEP6Symbol6HandleS2_P6Thread
   fun:_ZN16SystemDictionary15resolve_or_nullEP6Symbol6HandleS2_P6Thread
   fun:_ZN16SystemDictionary15resolve_or_failEP6Symbol6HandleS2_bP6Thread
   fun:_Z28find_class_from_class_loaderP7JNIEnv_P6Symbolh6HandleS3_hP6Thread
   fun:JVM_FindClassFromCaller
   fun:Java_java_lang_Class_forName0
}
{
   <insert_a_suppression_name_here>
   Memcheck:Leak
   match-leak-kinds: reachable
   fun:malloc
   fun:newEntry
   fun:ZIP_GetEntry
   fun:ZIP_FindEntry
   fun:_ZN17ClassPathZipEntry11open_streamEPKcP6Thread
   fun:_ZN11ClassLoader14load_classfileEP6SymbolP6Thread
   fun:_ZN16SystemDictionary19load_instance_classEP6Symbol6HandleP6Thread
   fun:_ZN16SystemDictionary30resolve_instance_class_or_nullEP6Symbol6HandleS2_P6Thread
   fun:_ZN16SystemDictionary15resolve_or_nullEP6Symbol6HandleS2_P6Thread
   fun:_ZN16SystemDictionary21resolve_super_or_failEP6SymbolS1_6HandleS2_bP6Thread
   fun:_ZN15ClassFileParser14parseClassFileEP6Symbol6HandleS2_11KlassHandleP13GrowableArrayIS2_ER13TempNewSymbolbP6Thread
   fun:_ZN11ClassLoader14load_classfileEP6SymbolP6Thread
}
{
   <insert_a_suppression_name_here>
   Memcheck:Leak
   match-leak-kinds: reachable
   fun:malloc
   fun:_Znwm
   fun:_ZN6ThreadC2Ev
   fun:_ZN11NamedThreadC2Ev
   fun:_ZN8VMThread6createEv
   fun:_ZN7Threads9create_vmEP14JavaVMInitArgsPb
   fun:JNI_CreateJavaVM
   fun:JavaMain
   fun:start_thread
   fun:clone
}
{
   <insert_a_suppression_name_here>
   Memcheck:Leak
   match-leak-kinds: reachable
   fun:malloc
   fun:_Znwm
   fun:_ZN6ThreadC2Ev
   fun:_ZN10JavaThreadC2EPFvPS_P6ThreadEm
   fun:_ZN21SurrogateLockerThreadC1Ev
   fun:_ZN21SurrogateLockerThread4makeEP6Thread
   fun:_ZN25ConcurrentMarkSweepThread25makeSurrogateLockerThreadEP6Thread
   fun:_ZN7Threads9create_vmEP14JavaVMInitArgsPb
   fun:JNI_CreateJavaVM
   fun:JavaMain
   fun:start_thread
   fun:clone
}
{
   <insert_a_suppression_name_here>
   Memcheck:Leak
   match-leak-kinds: reachable
   fun:malloc
   fun:_Znwm
   fun:_ZN6ThreadC2Ev
   fun:_ZN10JavaThreadC1EPFvPS_P6ThreadEm
   fun:_ZN2os11signal_initEv
   fun:_ZN7Threads9create_vmEP14JavaVMInitArgsPb
   fun:JNI_CreateJavaVM
   fun:JavaMain
   fun:start_thread
   fun:clone
}
{
   <insert_a_suppression_name_here>
   Memcheck:Leak
   match-leak-kinds: reachable
   fun:malloc
   fun:_Znwm
   fun:_ZN6ThreadC2Ev
   fun:_ZN10JavaThreadC2EPFvPS_P6ThreadEm
   fun:_ZN13ServiceThread10initializeEv
   fun:_ZN10Management10initializeEP6Thread
   fun:_ZN7Threads9create_vmEP14JavaVMInitArgsPb
   fun:JNI_CreateJavaVM
   fun:JavaMain
   fun:start_thread
   fun:clone
}
{
   <insert_a_suppression_name_here>
   Memcheck:Leak
   match-leak-kinds: reachable
   fun:malloc
   fun:_Znwm
   fun:_ZN6ThreadC2Ev
   fun:_ZN10JavaThreadC1EPFvPS_P6ThreadEm
   fun:JVM_StartThread
   obj:*
   obj:*
   obj:*
   obj:*
   obj:*
   obj:*
   fun:_ZN9JavaCalls11call_helperEP9JavaValueP12methodHandleP17JavaCallArgumentsP6Thread
}
{
   <insert_a_suppression_name_here>
   Memcheck:Leak
   match-leak-kinds: reachable
   fun:malloc
   fun:_Znwm
   fun:_ZN6ThreadC2Ev
   fun:_ZN10JavaThreadC1EPFvPS_P6ThreadEm
   fun:JVM_StartThread
   obj:*
   obj:*
   obj:*
   obj:*
   obj:*
   obj:*
   obj:*
}
{
   <insert_a_suppression_name_here>
   Memcheck:Leak
   match-leak-kinds: reachable
   fun:malloc
   fun:_Znwm
   fun:_ZN6ThreadC2Ev
   fun:_ZN10JavaThreadC1EPFvPS_P6ThreadEm
   fun:JVM_StartThread
   obj:*
   obj:*
   obj:*
   obj:*
   obj:*
   fun:_ZN9JavaCalls11call_helperEP9JavaValueP12methodHandleP17JavaCallArgumentsP6Thread
   fun:_ZN9JavaCalls4callEP9JavaValue12methodHandleP17JavaCallArgumentsP6Thread
}
{
   <insert_a_suppression_name_here>
   Memcheck:Leak
   match-leak-kinds: possible
   fun:malloc
   fun:_Znwm
   fun:_ZN6ThreadC2Ev
   fun:_ZN11NamedThreadC2Ev
   fun:_ZN8WorkGang15allocate_workerEj
   fun:_ZN8WorkGang18initialize_workersEv
   fun:_ZN16GenCollectedHeapC1EP18GenCollectorPolicy
   fun:_ZN8Universe15initialize_heapEv
   fun:_Z13universe_initv
   fun:_Z12init_globalsv
   fun:_ZN7Threads9create_vmEP14JavaVMInitArgsPb
   fun:JNI_CreateJavaVM
}
{
   <insert_a_suppression_name_here>
   Memcheck:Leak
   match-leak-kinds: possible
   fun:malloc
   fun:_Znwm
   fun:_ZN6ThreadC2Ev
   fun:_ZN11NamedThreadC2Ev
   fun:_ZN18ConcurrentGCThreadC2Ev
   fun:_ZN25ConcurrentMarkSweepThread5startEP12CMSCollector
   fun:_ZN12CMSCollectorC1EP29ConcurrentMarkSweepGenerationS1_P11CardTableRSP25ConcurrentMarkSweepPolicy
   fun:_ZN16GenCollectedHeap20create_cms_collectorEv
   fun:_ZN16GenCollectedHeap10initializeEv
   fun:_ZN8Universe15initialize_heapEv
   fun:_Z13universe_initv
   fun:_Z12init_globalsv
}
{
   <insert_a_suppression_name_here>
   Memcheck:Leak
   match-leak-kinds: possible
   fun:malloc
   fun:_Znwm
   fun:_ZN6ThreadC2Ev
   fun:_ZN10JavaThreadC1Eb
   fun:attach_current_thread
   fun:jni_DestroyJavaVM
   fun:JavaMain
   fun:start_thread
   fun:clone
}
{
   <insert_a_suppression_name_here>
   Memcheck:Leak
   match-leak-kinds: indirect
   fun:malloc
   fun:_Znwm
   fun:_ZN6ThreadC2Ev
   fun:_ZN13WatcherThread5startEv
   fun:_ZN7Threads9create_vmEP14JavaVMInitArgsPb
   fun:JNI_CreateJavaVM
   fun:JavaMain
   fun:start_thread
   fun:clone
}
{
   <insert_a_suppression_name_here>
   Memcheck:Leak
   match-leak-kinds: reachable
   fun:malloc
   fun:_ZN2os6mallocEmtPh
   fun:_ZN9Arguments5parseEPK14JavaVMInitArgs
   fun:_ZN7Threads9create_vmEP14JavaVMInitArgsPb
   fun:JNI_CreateJavaVM
   fun:JavaMain
   fun:start_thread
   fun:clone
}
{
   <insert_a_suppression_name_here>
   Memcheck:Leak
   match-leak-kinds: reachable
   fun:malloc
   fun:_ZN2os6mallocEmtPh
   fun:_Z12AllocateHeapmtPhN17AllocFailStrategy13AllocFailEnumE
   fun:_ZN11ClassLoader11add_packageEPKciP6Thread
   fun:_ZN11ClassLoader14load_classfileEP6SymbolP6Thread
   fun:_ZN16SystemDictionary19load_instance_classEP6Symbol6HandleP6Thread
   fun:_ZN16SystemDictionary30resolve_instance_class_or_nullEP6Symbol6HandleS2_P6Thread
   fun:_ZN16SystemDictionary15resolve_or_nullEP6Symbol6HandleS2_P6Thread
   fun:JVM_FindClassFromBootLoader
   fun:Java_java_lang_ClassLoader_findBootstrapClass
   obj:*
   obj:*
}
{
   <insert_a_suppression_name_here>
   Memcheck:Leak
   match-leak-kinds: reachable
   fun:malloc
   fun:dl_open_worker
   fun:_dl_catch_exception
   fun:_dl_open
   fun:dlopen_doit
   fun:_dl_catch_exception
   fun:_dl_catch_error
   fun:_dlerror_run
   fun:dlopen@@GLIBC_2.2.5
   fun:_ZN2os8dll_loadEPKcPci
   fun:_ZN2os19native_java_libraryEv
   fun:_Z16JDK_Version_initv
}
{
   <insert_a_suppression_name_here>
   Memcheck:Leak
   match-leak-kinds: reachable
   fun:malloc
   fun:dl_open_worker
   fun:_dl_catch_exception
   fun:_dl_open
   fun:dlopen_doit
   fun:_dl_catch_exception
   fun:_dl_catch_error
   fun:_dlerror_run
   fun:dlopen@@GLIBC_2.2.5
   fun:_ZN2os8dll_loadEPKcPci
   fun:_ZN11ClassLoader16load_zip_libraryEv
   fun:_ZN11ClassLoader10initializeEv
}
{
   <insert_a_suppression_name_here>
   Memcheck:Leak
   match-leak-kinds: reachable
   fun:malloc
   fun:_ZN2os6mallocEmtPh
   fun:_ZN8CHeapObjILt1280EEnwEmPh
   fun:_ZN15CollectorPolicy26initialize_perm_generationEN7PermGen4NameE
   fun:_ZN25ConcurrentMarkSweepPolicy22initialize_generationsEv
   fun:_ZN8Universe15initialize_heapEv
   fun:_Z13universe_initv
   fun:_Z12init_globalsv
   fun:_ZN7Threads9create_vmEP14JavaVMInitArgsPb
   fun:JNI_CreateJavaVM
   fun:JavaMain
   fun:start_thread
}
{
   <insert_a_suppression_name_here>
   Memcheck:Leak
   match-leak-kinds: reachable
   fun:malloc
   fun:_Znwm
   fun:_Znam
   fun:_ZN17CardTableModRefBSC2E9MemRegioni
   fun:_ZN11CardTableRSC1E9MemRegioni
   fun:_ZN15CollectorPolicy14create_rem_setE9MemRegioni
   fun:_ZN16GenCollectedHeap10initializeEv
   fun:_ZN8Universe15initialize_heapEv
   fun:_Z13universe_initv
   fun:_Z12init_globalsv
   fun:_ZN7Threads9create_vmEP14JavaVMInitArgsPb
   fun:JNI_CreateJavaVM
}
{
   <insert_a_suppression_name_here>
   Memcheck:Leak
   match-leak-kinds: reachable
   fun:malloc
   fun:newEntry
   fun:ZIP_GetEntry
   fun:Java_java_util_zip_ZipFile_getEntry
   obj:*
   obj:*
   obj:*
   obj:*
   obj:*
   obj:*
   obj:*
   obj:*
}
{
   <insert_a_suppression_name_here>
   Memcheck:Leak
   match-leak-kinds: possible
   fun:malloc
   fun:_ZN2os6mallocEmtPh
   fun:_ZN11NamedThread8set_nameEPKcz
   fun:_ZN8WorkGang15allocate_workerEj
   fun:_ZN8WorkGang18initialize_workersEv
   fun:_ZN16GenCollectedHeapC1EP18GenCollectorPolicy
   fun:_ZN8Universe15initialize_heapEv
   fun:_Z13universe_initv
   fun:_Z12init_globalsv
   fun:_ZN7Threads9create_vmEP14JavaVMInitArgsPb
   fun:JNI_CreateJavaVM
   fun:JavaMain
}
{
   <insert_a_suppression_name_here>
   Memcheck:Leak
   match-leak-kinds: possible
   fun:malloc
   fun:_ZN2os6mallocEmtPh
   fun:_ZN11NamedThread8set_nameEPKcz
   fun:_ZN25ConcurrentMarkSweepThread5startEP12CMSCollector
   fun:_ZN12CMSCollectorC1EP29ConcurrentMarkSweepGenerationS1_P11CardTableRSP25ConcurrentMarkSweepPolicy
   fun:_ZN16GenCollectedHeap20create_cms_collectorEv
   fun:_ZN16GenCollectedHeap10initializeEv
   fun:_ZN8Universe15initialize_heapEv
   fun:_Z13universe_initv
   fun:_Z12init_globalsv
   fun:_ZN7Threads9create_vmEP14JavaVMInitArgsPb
   fun:JNI_CreateJavaVM
}
{
   <insert_a_suppression_name_here>
   Memcheck:Leak
   match-leak-kinds: possible
   fun:malloc
   fun:_ZN2os6mallocEmtPh
   fun:_ZN11NamedThread8set_nameEPKcz
   fun:_ZN8VMThread6createEv
   fun:_ZN7Threads9create_vmEP14JavaVMInitArgsPb
   fun:JNI_CreateJavaVM
   fun:JavaMain
   fun:start_thread
   fun:clone
}
{
   <insert_a_suppression_name_here>
   Memcheck:Leak
   match-leak-kinds: possible
   fun:malloc
   fun:_ZN2os6mallocEmtPh
   fun:_Z12AllocateHeapmtPhN17AllocFailStrategy13AllocFailEnumE
   fun:_ZN21LoaderConstraintTable9add_entryEP6SymbolP12klassOopDesc6HandleS3_S4_
   fun:_ZN16SystemDictionary21add_loader_constraintEP6Symbol6HandleS2_P6Thread
   fun:_ZN16SystemDictionary23check_signature_loadersEP6Symbol6HandleS2_bP6Thread
   fun:_ZN12LinkResolver14resolve_methodER12methodHandle11KlassHandleP6SymbolS4_S2_bP6Thread
   fun:_ZN12LinkResolver30linktime_resolve_static_methodER12methodHandle11KlassHandleP6SymbolS4_S2_bP6Thread
   fun:_ZN12LinkResolver19resolve_static_callER8CallInfoR11KlassHandleP6SymbolS5_S2_bbP6Thread
   fun:_ZN12LinkResolver20resolve_invokestaticER8CallInfo18constantPoolHandleiP6Thread
   fun:_ZN18InterpreterRuntime14resolve_invokeEP10JavaThreadN9Bytecodes4CodeE
   obj:*
}
{
   <insert_a_suppression_name_here>
   Memcheck:Leak
   match-leak-kinds: reachable
   fun:malloc
   fun:_ZN2os6mallocEmtPh
   fun:_ZN14SystemPropertyC1EPKcS1_b
   fun:_ZN9Arguments23PropertyList_unique_addEPP14SystemPropertyPKcPch
   fun:_ZN9Arguments12add_propertyEPKc
   fun:_ZN9Arguments22parse_each_vm_init_argEPK14JavaVMInitArgsP12SysClassPathPb15FlagValueOrigin
   fun:_ZN9Arguments18parse_vm_init_argsEPK14JavaVMInitArgs
   fun:_ZN9Arguments5parseEPK14JavaVMInitArgs
   fun:_ZN7Threads9create_vmEP14JavaVMInitArgsPb
   fun:JNI_CreateJavaVM
   fun:JavaMain
   fun:start_thread
}
{
   <insert_a_suppression_name_here>
   Memcheck:Leak
   match-leak-kinds: reachable
   fun:malloc
   fun:_ZN2os6mallocEmtPh
   fun:_ZN8CodeBlob12set_oop_mapsEP9OopMapSet
   fun:_ZN8CodeBlobC2EPKcP10CodeBufferiiiiP9OopMapSet
   fun:_ZN11RuntimeStub16new_runtime_stubEPKcP10CodeBufferiiP9OopMapSetb
   fun:_ZN13StubGenerator16generate_initialEv
   fun:_Z22StubGenerator_generateP10CodeBufferb
   fun:_ZN12StubRoutines11initialize1Ev
   fun:_Z12init_globalsv
   fun:_ZN7Threads9create_vmEP14JavaVMInitArgsPb
   fun:JNI_CreateJavaVM
   fun:JavaMain
}
{
   <insert_a_suppression_name_here>
   Memcheck:Leak
   match-leak-kinds: reachable
   fun:malloc
   fun:_ZN2os6mallocEmtPh
   fun:_ZN8CodeBlob12set_oop_mapsEP9OopMapSet
   fun:_ZN8CodeBlobC2EPKcP10CodeBufferiiiiP9OopMapSet
   fun:_ZN11RuntimeStub16new_runtime_stubEPKcP10CodeBufferiiP9OopMapSetb
   fun:_ZN13StubGenerator12generate_allEv
   fun:_Z22StubGenerator_generateP10CodeBufferb
   fun:_ZN12StubRoutines11initialize2Ev
   fun:_Z12init_globalsv
   fun:_ZN7Threads9create_vmEP14JavaVMInitArgsPb
   fun:JNI_CreateJavaVM
   fun:JavaMain
}
{
   <insert_a_suppression_name_here>
   Memcheck:Leak
   match-leak-kinds: reachable
   fun:malloc
   fun:_ZN2os6mallocEmtPh
   fun:_ZN8CodeBlob12set_oop_mapsEP9OopMapSet
   fun:_ZN8CodeBlobC2EPKcP10CodeBufferiiiiP9OopMapSet
   fun:_ZN13ExceptionBlob6createEP10CodeBufferP9OopMapSeti
   fun:_ZN11OptoRuntime23generate_exception_blobEv
   fun:_ZN11OptoRuntime8generateEP5ciEnv
   fun:_ZN10C2Compiler18initialize_runtimeEv
   fun:_ZN16AbstractCompiler19initialize_runtimesEPFvvEPVi
   fun:_ZN10C2Compiler10initializeEv
   fun:_ZN10C2Compiler14compile_methodEP5ciEnvP8ciMethodi
   fun:_ZN13CompileBroker25invoke_compiler_on_methodEP11CompileTask
}
{
   <insert_a_suppression_name_here>
   Memcheck:Leak
   match-leak-kinds: reachable
   fun:malloc
   fun:_ZN2os6mallocEmtPh
   fun:_ZN8CodeBlob12set_oop_mapsEP9OopMapSet
   fun:_ZN8CodeBlobC2EPKcP10CodeBufferiiiiP9OopMapSet
   fun:_ZN11RuntimeStub16new_runtime_stubEPKcP10CodeBufferiiP9OopMapSetb
   fun:_ZN7CompileC1EP5ciEnvPFPK8TypeFuncvEPhPKcibbb
   fun:_ZN11OptoRuntime13generate_stubEP5ciEnvPFPK8TypeFuncvEPhPKcibbb
   fun:_ZN11OptoRuntime8generateEP5ciEnv
   fun:_ZN10C2Compiler18initialize_runtimeEv
   fun:_ZN16AbstractCompiler19initialize_runtimesEPFvvEPVi
   fun:_ZN10C2Compiler10initializeEv
   fun:_ZN10C2Compiler14compile_methodEP5ciEnvP8ciMethodi
}
{
   <insert_a_suppression_name_here>
   Memcheck:Leak
   match-leak-kinds: reachable
   fun:malloc
   fun:_ZN2os6mallocEmtPh
   fun:_ZN8CHeapObjILt1024EEnwEmPh
   fun:_ZN21AdapterHandlerLibrary11get_adapterE12methodHandle
   fun:_ZN13methodOopDesc13make_adaptersE12methodHandleP6Thread
   fun:_ZN8Rewriter17relocate_and_linkE19instanceKlassHandle14objArrayHandleP6Thread
   fun:_ZN13instanceKlass15link_class_implE19instanceKlassHandlebP6Thread
   fun:_ZN13instanceKlass15initialize_implE19instanceKlassHandleP6Thread
   fun:_ZN13instanceKlass10initializeEP6Thread
   fun:_ZN7Threads9create_vmEP14JavaVMInitArgsPb
   fun:JNI_CreateJavaVM
   fun:JavaMain
}
{
   <insert_a_suppression_name_here>
   Memcheck:Leak
   match-leak-kinds: reachable
   fun:malloc
   fun:_ZN2os6mallocEmtPh
   fun:_Z12AllocateHeapmtPhN17AllocFailStrategy13AllocFailEnumE
   fun:_ZN11ClassLoader11add_packageEPKciP6Thread
   fun:_ZN11ClassLoader14load_classfileEP6SymbolP6Thread
   fun:_ZN16SystemDictionary19load_instance_classEP6Symbol6HandleP6Thread
   fun:_ZN16SystemDictionary30resolve_instance_class_or_nullEP6Symbol6HandleS2_P6Thread
   fun:_ZN16SystemDictionary15resolve_or_nullEP6Symbol6HandleS2_P6Thread
   fun:_ZN16SystemDictionary15resolve_or_failEP6Symbol6HandleS2_bP6Thread
   fun:_ZN19constantPoolOopDesc13klass_at_implE18constantPoolHandleiP6Thread
   fun:_ZN18InterpreterRuntime4_newEP10JavaThreadP19constantPoolOopDesci
   obj:*
}
{
   <insert_a_suppression_name_here>
   Memcheck:Leak
   match-leak-kinds: reachable
   fun:malloc
   fun:_ZN2os6mallocEmtPh
   fun:_ZN9Arguments12add_propertyEPKc
   fun:_ZN9Arguments22parse_each_vm_init_argEPK14JavaVMInitArgsP12SysClassPathPb15FlagValueOrigin
   fun:_ZN9Arguments18parse_vm_init_argsEPK14JavaVMInitArgs
   fun:_ZN9Arguments5parseEPK14JavaVMInitArgs
   fun:_ZN7Threads9create_vmEP14JavaVMInitArgsPb
   fun:JNI_CreateJavaVM
   fun:JavaMain
   fun:start_thread
   fun:clone
}
{
   <insert_a_suppression_name_here>
   Memcheck:Leak
   match-leak-kinds: reachable
   fun:realloc
   fun:_ZN2os7reallocEPvmtPh
   fun:_ZN9Arguments22parse_each_vm_init_argEPK14JavaVMInitArgsP12SysClassPathPb15FlagValueOrigin
   fun:_ZN9Arguments18parse_vm_init_argsEPK14JavaVMInitArgs
   fun:_ZN9Arguments5parseEPK14JavaVMInitArgs
   fun:_ZN7Threads9create_vmEP14JavaVMInitArgsPb
   fun:JNI_CreateJavaVM
   fun:JavaMain
   fun:start_thread
   fun:clone
}
{
   <insert_a_suppression_name_here>
   Memcheck:Leak
   match-leak-kinds: reachable
   fun:malloc
   fun:_ZN2os6mallocEmtPh
   fun:_ZN8CodeBlob12set_oop_mapsEP9OopMapSet
   fun:_ZN8CodeBlobC2EPKcP10CodeBufferiiiiP9OopMapSet
   fun:_ZN7nmethodC1EP13methodOopDesciiP11CodeOffsetsP10CodeBufferiiiP9OopMapSet
   fun:_ZN7nmethod18new_native_nmethodE12methodHandleiP10CodeBufferiiiiiP9OopMapSet
   fun:_ZN13SharedRuntime23generate_native_wrapperEP14MacroAssembler12methodHandleiP9BasicTypeP9VMRegPairS3_
   fun:_ZN21AdapterHandlerLibrary21create_native_wrapperE12methodHandlei
   fun:_ZN13CompileBroker14compile_methodE12methodHandleiiS0_iPKcP6Thread
   fun:_ZN16SimpleCompPolicy23method_invocation_eventE12methodHandleP10JavaThread
   fun:_ZN19NonTieredCompPolicy5eventE12methodHandleS0_ii9CompLevelP7nmethodP10JavaThread
   fun:_ZN18InterpreterRuntime32frequency_counter_overflow_innerEP10JavaThreadPh
}
{
   <insert_a_suppression_name_here>
   Memcheck:Leak
   match-leak-kinds: reachable
   fun:malloc
   fun:_ZN2os6mallocEmtPh
   fun:_ZN20GenericGrowableArray12raw_allocateEi
   fun:_ZN19DerivedPointerTable5clearEv
   fun:_ZN16GenCollectedHeap13do_collectionEbbmbi
   fun:_ZN16GenCollectedHeap18do_full_collectionEbi
   fun:_ZN17VM_GenCollectFull4doitEv
   fun:_ZN12VM_Operation8evaluateEv
   fun:_ZN8VMThread18evaluate_operationEP12VM_Operation
   fun:_ZN8VMThread4loopEv
   fun:_ZN8VMThread3runEv
   fun:_ZL10java_startP6Thread
}
{
   <insert_a_suppression_name_here>
   Memcheck:Leak
   match-leak-kinds: reachable
   fun:malloc
   fun:_ZN2os6mallocEmtPh
   fun:_ZN5ArenanwEmt
   fun:_ZN6ThreadC2Ev
   fun:_ZN10JavaThreadC1EPFvPS_P6ThreadEm
   fun:JVM_StartThread
   obj:*
   obj:*
   obj:*
   obj:*
   fun:_ZN9JavaCalls11call_helperEP9JavaValueP12methodHandleP17JavaCallArgumentsP6Thread
   fun:_ZN9JavaCalls4callEP9JavaValue12methodHandleP17JavaCallArgumentsP6Thread
}
{
   <insert_a_suppression_name_here>
   Memcheck:Leak
   match-leak-kinds: reachable
   fun:malloc
   fun:_ZN2os6mallocEmtPh
   fun:_ZN6SymbolnwEmiP6Thread
   fun:_ZN11SymbolTable15allocate_symbolEPKhibP6Thread
   fun:_ZN11SymbolTable9basic_addEiPhijbP6Thread
   fun:_ZN11SymbolTable6lookupEPKciP6Thread
   fun:JVM_FindClassFromClass
   fun:load_class_global
   fun:object_fullinfo_to_classclass
   fun:merge_fullinfo_types
   fun:isAssignableTo
   fun:pop_stack
}
{
   <insert_a_suppression_name_here>
   Memcheck:Leak
   match-leak-kinds: reachable
   fun:malloc
   fun:_ZN2os6mallocEmtPh
   fun:_ZN8CHeapObjILt256EEnwEmPh
   fun:_ZN10Dictionary21add_protection_domainEij19instanceKlassHandle6HandleS1_P6Thread
   fun:_ZN16SystemDictionary26validate_protection_domainE19instanceKlassHandle6HandleS1_P6Thread
   fun:_ZN16SystemDictionary30resolve_instance_class_or_nullEP6Symbol6HandleS2_P6Thread
   fun:_ZN16SystemDictionary15resolve_or_nullEP6Symbol6HandleS2_P6Thread
   fun:_ZN16SystemDictionary21resolve_super_or_failEP6SymbolS1_6HandleS2_bP6Thread
   fun:_ZN15ClassFileParser14parseClassFileEP6Symbol6HandleS2_11KlassHandleP13GrowableArrayIS2_ER13TempNewSymbolbP6Thread
   fun:_ZN16SystemDictionary19resolve_from_streamEP6Symbol6HandleS2_P15ClassFileStreambP6Thread
   fun:_ZL23jvm_define_class_commonP7JNIEnv_PKcP8_jobjectPKaiS4_S2_hP6Thread
   fun:JVM_DefineClassWithSource
}
{
   <insert_a_suppression_name_here>
   Memcheck:Leak
   match-leak-kinds: reachable
   fun:malloc
   fun:_ZN2os6mallocEmtPh
   fun:_ZN11ResourceObjnwEmNS_15allocation_typeEt
   fun:_ZN12CMSCollectorC1EP29ConcurrentMarkSweepGenerationS1_P11CardTableRSP25ConcurrentMarkSweepPolicy
   fun:_ZN16GenCollectedHeap20create_cms_collectorEv
   fun:_ZN16GenCollectedHeap10initializeEv
   fun:_ZN8Universe15initialize_heapEv
   fun:_Z13universe_initv
   fun:_Z12init_globalsv
   fun:_ZN7Threads9create_vmEP14JavaVMInitArgsPb
   fun:JNI_CreateJavaVM
   fun:JavaMain
}
{
   <insert_a_suppression_name_here>
   Memcheck:Leak
   match-leak-kinds: reachable
   fun:malloc
   fun:_ZN2os6mallocEmtPh
   fun:_ZN11ResourceObjnwEmNS_15allocation_typeEt
   fun:_Z14marksweep_initv
   fun:_Z12init_globalsv
   fun:_ZN7Threads9create_vmEP14JavaVMInitArgsPb
   fun:JNI_CreateJavaVM
   fun:JavaMain
   fun:start_thread
   fun:clone
}
{
   <insert_a_suppression_name_here>
   Memcheck:Leak
   match-leak-kinds: reachable
   fun:calloc
   fun:Java_java_util_zip_Inflater_init
   obj:*
   obj:*
   obj:*
   obj:*
   obj:*
   obj:*
   obj:*
   obj:*
   obj:*
   obj:*
}
{
   <insert_a_suppression_name_here>
   Memcheck:Leak
   match-leak-kinds: reachable
   fun:malloc
   fun:_ZN2os6mallocEmtPh
   fun:_Z12AllocateHeapmtPhN17AllocFailStrategy13AllocFailEnumE
   fun:_ZN11ClassLoader11add_packageEPKciP6Thread
   fun:_ZN11ClassLoader14load_classfileEP6SymbolP6Thread
   fun:_ZN16SystemDictionary19load_instance_classEP6Symbol6HandleP6Thread
   fun:_ZN16SystemDictionary30resolve_instance_class_or_nullEP6Symbol6HandleS2_P6Thread
   fun:_ZN16SystemDictionary15resolve_or_nullEP6Symbol6HandleS2_P6Thread
   fun:_ZN16SystemDictionary21resolve_super_or_failEP6SymbolS1_6HandleS2_bP6Thread
   fun:_ZN15ClassFileParser14parseClassFileEP6Symbol6HandleS2_11KlassHandleP13GrowableArrayIS2_ER13TempNewSymbolbP6Thread
   fun:_ZN11ClassLoader14load_classfileEP6SymbolP6Thread
   fun:_ZN16SystemDictionary19load_instance_classEP6Symbol6HandleP6Thread
}
{
   <insert_a_suppression_name_here>
   Memcheck:Leak
   match-leak-kinds: reachable
   fun:malloc
   fun:_ZN2os6mallocEmtPh
   fun:_ZN11ClassLoader16setup_meta_indexEv
   fun:_ZN11ClassLoader10initializeEv
   fun:_Z12init_globalsv
   fun:_ZN7Threads9create_vmEP14JavaVMInitArgsPb
   fun:JNI_CreateJavaVM
   fun:JavaMain
   fun:start_thread
   fun:clone
}
{
   <insert_a_suppression_name_here>
   Memcheck:Leak
   match-leak-kinds: reachable
   fun:malloc
   fun:_ZN2os6mallocEmtPh
   fun:_ZN8CHeapObjILt1024EEnwEmPh
   fun:_ZN21AdapterHandlerLibrary11get_adapterE12methodHandle
   fun:_ZN13methodOopDesc13make_adaptersE12methodHandleP6Thread
   fun:_ZN8Rewriter17relocate_and_linkE19instanceKlassHandle14objArrayHandleP6Thread
   fun:_ZN13instanceKlass15link_class_implE19instanceKlassHandlebP6Thread
   fun:_ZN13instanceKlass15link_class_implE19instanceKlassHandlebP6Thread
   fun:_ZN13instanceKlass15link_class_implE19instanceKlassHandlebP6Thread
   fun:_ZN13instanceKlass18link_class_or_failEP6Thread
   fun:_Z18universe_post_initv
   fun:_Z12init_globalsv
}
{
   <insert_a_suppression_name_here>
   Memcheck:Leak
   match-leak-kinds: reachable
   fun:malloc
   fun:_ZN2os6mallocEmtPh
   fun:_ZN8CHeapObjILt1024EEnwEmPh
   fun:_ZN21AdapterHandlerLibrary11get_adapterE12methodHandle
   fun:_ZN13methodOopDesc13make_adaptersE12methodHandleP6Thread
   fun:_ZN8Rewriter17relocate_and_linkE19instanceKlassHandle14objArrayHandleP6Thread
   fun:_ZN13instanceKlass15link_class_implE19instanceKlassHandlebP6Thread
   fun:_ZN13instanceKlass15initialize_implE19instanceKlassHandleP6Thread
   fun:_ZN13instanceKlass10initializeEP6Thread
   fun:_Z28find_class_from_class_loaderP7JNIEnv_P6Symbolh6HandleS3_hP6Thread
   fun:JVM_FindClassFromCaller
   fun:Java_java_lang_Class_forName0
}
{
   <insert_a_suppression_name_here>
   Memcheck:Leak
   match-leak-kinds: reachable
   fun:malloc
   fun:_ZN2os6mallocEmtPh
   fun:_ZN8CHeapObjILt256EEnwEmPh
   fun:_ZN10Dictionary21add_protection_domainEij19instanceKlassHandle6HandleS1_P6Thread
   fun:_ZN16SystemDictionary26validate_protection_domainE19instanceKlassHandle6HandleS1_P6Thread
   fun:_ZN16SystemDictionary30resolve_instance_class_or_nullEP6Symbol6HandleS2_P6Thread
   fun:_ZN16SystemDictionary15resolve_or_nullEP6Symbol6HandleS2_P6Thread
   fun:_ZN16SystemDictionary15resolve_or_failEP6Symbol6HandleS2_bP6Thread
   fun:_Z28find_class_from_class_loaderP7JNIEnv_P6Symbolh6HandleS3_hP6Thread
   fun:JVM_FindClassFromCaller
   fun:Java_java_lang_Class_forName0
   obj:*
}
{
   <insert_a_suppression_name_here>
   Memcheck:Leak
   match-leak-kinds: definite
   fun:malloc
   fun:JLI_MemAlloc
   fun:SetJavaCommandLineProp
   fun:JLI_Launch
   fun:main
}
{
   <insert_a_suppression_name_here>
   Memcheck:Leak
   match-leak-kinds: reachable
   fun:malloc
   fun:realloc
   fun:initLocalIfs
   fun:JNI_OnLoad
   fun:Java_java_lang_ClassLoader_00024NativeLibrary_load
   obj:*
   obj:*
   obj:*
   obj:*
   obj:*
   obj:*
   obj:*
}
{
   <insert_a_suppression_name_here>
   Memcheck:Leak
   match-leak-kinds: reachable
   fun:malloc
   fun:_ZN2os6mallocEmtPh
   fun:_ZN8CHeapObjILt1792EEnwEmPh
   fun:_ZN13MemoryManager29get_code_cache_memory_managerEv
   fun:_ZN13MemoryService25add_code_heap_memory_poolEP8CodeHeap
   fun:_ZN9CodeCache10initializeEv
   fun:_Z12init_globalsv
   fun:_ZN7Threads9create_vmEP14JavaVMInitArgsPb
   fun:JNI_CreateJavaVM
   fun:JavaMain
   fun:start_thread
   fun:clone
}
{
   <insert_a_suppression_name_here>
   Memcheck:Leak
   match-leak-kinds: reachable
   fun:malloc
   fun:_ZN2os6mallocEmtPh
   fun:_ZN11ResourceObjnwEmNS_15allocation_typeEt
   fun:_ZN16DefNewGenerationC2E13ReservedSpacemiPKc
   fun:_ZN16ParNewGenerationC1E13ReservedSpacemi
   fun:_ZN14GenerationSpec4initE13ReservedSpaceiP9GenRemSet
   fun:_ZN16GenCollectedHeap10initializeEv
   fun:_ZN8Universe15initialize_heapEv
   fun:_Z13universe_initv
   fun:_Z12init_globalsv
   fun:_ZN7Threads9create_vmEP14JavaVMInitArgsPb
   fun:JNI_CreateJavaVM
}
{
   <insert_a_suppression_name_here>
   Memcheck:Leak
   match-leak-kinds: reachable
   fun:malloc
   fun:_ZN2os6mallocEmtPh
   fun:_ZN8CodeBlob12set_oop_mapsEP9OopMapSet
   fun:_ZN8CodeBlobC2EPKcP10CodeBufferiiiiP9OopMapSet
   fun:_ZN16UncommonTrapBlob6createEP10CodeBufferP9OopMapSeti
   fun:_ZN13SharedRuntime27generate_uncommon_trap_blobEv
   fun:_Z12init_globalsv
   fun:_ZN7Threads9create_vmEP14JavaVMInitArgsPb
   fun:JNI_CreateJavaVM
   fun:JavaMain
   fun:start_thread
   fun:clone
}
{
   <insert_a_suppression_name_here>
   Memcheck:Leak
   match-leak-kinds: reachable
   fun:malloc
   fun:_ZN2os6mallocEmtPh
   fun:_ZN8CHeapObjILt1280EEnwEmPh
   fun:_ZN12CMSCollector18ref_processor_initEv
   fun:_ZN16GenCollectedHeap19ref_processing_initEv
   fun:_ZN16GenCollectedHeap15post_initializeEv
   fun:_Z18universe_post_initv
   fun:_Z12init_globalsv
   fun:_ZN7Threads9create_vmEP14JavaVMInitArgsPb
   fun:JNI_CreateJavaVM
   fun:JavaMain
   fun:start_thread
}
{
   <insert_a_suppression_name_here>
   Memcheck:Leak
   match-leak-kinds: reachable
   fun:malloc
   fun:_ZN2os6mallocEmtPh
   fun:_ZN8CHeapObjILt1280EEnwEmPh
   fun:_ZN16ParNewGeneration18ref_processor_initEv
   fun:_ZN16GenCollectedHeap19ref_processing_initEv
   fun:_ZN16GenCollectedHeap15post_initializeEv
   fun:_Z18universe_post_initv
   fun:_Z12init_globalsv
   fun:_ZN7Threads9create_vmEP14JavaVMInitArgsPb
   fun:JNI_CreateJavaVM
   fun:JavaMain
   fun:start_thread
}
{
   <insert_a_suppression_name_here>
   Memcheck:Leak
   match-leak-kinds: reachable
   fun:malloc
   fun:_Znwm
   fun:_ZN6ThreadC2Ev
   fun:_ZN10JavaThreadC1EPFvPS_P6ThreadEm
   fun:JVM_StartThread
   obj:*
   obj:*
   obj:*
   obj:*
   fun:_ZN9JavaCalls11call_helperEP9JavaValueP12methodHandleP17JavaCallArgumentsP6Thread
   fun:_ZN9JavaCalls4callEP9JavaValue12methodHandleP17JavaCallArgumentsP6Thread
   fun:_ZN13instanceKlass22call_class_initializerEP6Thread
}
{
   <insert_a_suppression_name_here>
   Memcheck:Leak
   match-leak-kinds: reachable
   fun:malloc
   fun:_Znwm
   fun:_ZN6ThreadC2Ev
   fun:_ZN14CompilerThreadC1EP12CompileQueueP16CompilerCounters
   fun:_ZN13CompileBroker20make_compiler_threadEPKcP12CompileQueueP16CompilerCountersP6Thread
   fun:_ZN13CompileBroker21init_compiler_threadsEii
   fun:_ZN13CompileBroker16compilation_initEv
   fun:_ZN7Threads9create_vmEP14JavaVMInitArgsPb
   fun:JNI_CreateJavaVM
   fun:JavaMain
   fun:start_thread
   fun:clone
}
{
   <insert_a_suppression_name_here>
   Memcheck:Leak
   match-leak-kinds: reachable
   fun:malloc
   fun:_ZN2os6mallocEmtPh
   fun:_Z12AllocateHeapmtPhN17AllocFailStrategy13AllocFailEnumE
   fun:_ZN11ClassLoader11add_packageEPKciP6Thread
   fun:_ZN11ClassLoader14load_classfileEP6SymbolP6Thread
   fun:_ZN16SystemDictionary19load_instance_classEP6Symbol6HandleP6Thread
   fun:_ZN16SystemDictionary30resolve_instance_class_or_nullEP6Symbol6HandleS2_P6Thread
   fun:_ZN16SystemDictionary15resolve_or_nullEP6Symbol6HandleS2_P6Thread
   fun:_ZN16SystemDictionary15resolve_or_failEP6Symbol6HandleS2_bP6Thread
   fun:_ZN19constantPoolOopDesc13klass_at_implE18constantPoolHandleiP6Thread
   fun:_ZN12LinkResolver20resolve_invokestaticER8CallInfo18constantPoolHandleiP6Thread
   fun:_ZN18InterpreterRuntime14resolve_invokeEP10JavaThreadN9Bytecodes4CodeE
}
{
   <insert_a_suppression_name_here>
   Memcheck:Leak
   match-leak-kinds: reachable
   fun:malloc
   fun:setPathEnvironment
   fun:GetJavaProperties
   fun:Java_java_lang_System_initProperties
   obj:*
   obj:*
   obj:*
   fun:_ZN9JavaCalls11call_helperEP9JavaValueP12methodHandleP17JavaCallArgumentsP6Thread
   fun:_ZN9JavaCalls4callEP9JavaValue12methodHandleP17JavaCallArgumentsP6Thread
   fun:_ZN9JavaCalls11call_staticEP9JavaValue11KlassHandleP6SymbolS4_P6Thread
   fun:_ZN7Threads9create_vmEP14JavaVMInitArgsPb
   fun:JNI_CreateJavaVM
}
{
   <insert_a_suppression_name_here>
   Memcheck:Leak
   match-leak-kinds: reachable
   fun:malloc
   fun:_ZN2os6mallocEmtPh
   fun:_ZN8CHeapObjILt1792EEnwEmPh
   fun:_GLOBAL__I_diagnosticFramework.cpp
   obj:/usr/java/jdk1.7.0_80/jre/lib/amd64/server/libjvm.so
   obj:/usr/java/jdk1.7.0_80/jre/lib/amd64/server/libjvm.so
   obj:*
   fun:call_init
   fun:_dl_init
   fun:dl_open_worker
   fun:_dl_catch_exception
   fun:_dl_open
   fun:dlopen_doit
}
{
   <insert_a_suppression_name_here>
   Memcheck:Leak
   match-leak-kinds: reachable
   fun:malloc
   fun:_ZN2os6mallocEmtPh
   fun:_ZN8CHeapObjILt1792EEnwEmPh
   fun:_GLOBAL__I_decoder.cpp
   obj:/usr/java/jdk1.7.0_80/jre/lib/amd64/server/libjvm.so
   obj:/usr/java/jdk1.7.0_80/jre/lib/amd64/server/libjvm.so
   obj:*
   fun:call_init
   fun:_dl_init
   fun:dl_open_worker
   fun:_dl_catch_exception
   fun:_dl_open
   fun:dlopen_doit
}
{
   <insert_a_suppression_name_here>
   Memcheck:Leak
   match-leak-kinds: reachable
   fun:calloc
   fun:_dl_check_map_versions
   fun:dl_open_worker
   fun:_dl_catch_exception
   fun:_dl_open
   fun:dlopen_doit
   fun:_dl_catch_exception
   fun:_dl_catch_error
   fun:_dlerror_run
   fun:dlopen@@GLIBC_2.2.5
   fun:_ZN2os8dll_loadEPKcPci
   fun:_ZN2os19native_java_libraryEv
}
{
   <insert_a_suppression_name_here>
   Memcheck:Leak
   match-leak-kinds: reachable
   fun:malloc
   fun:_ZN2os6mallocEmtPh
   fun:_ZN8CHeapObjILt1792EEnwEmPh
   fun:_ZN2os6init_2Ev
   fun:_ZN7Threads9create_vmEP14JavaVMInitArgsPb
   fun:JNI_CreateJavaVM
   fun:JavaMain
   fun:start_thread
   fun:clone
}
{
   <insert_a_suppression_name_here>
   Memcheck:Leak
   match-leak-kinds: reachable
   fun:malloc
   fun:_ZN2os6mallocEmtPh
   fun:_ZN8CHeapObjILt1792EEnwEmPh
   fun:_Z10mutex_initv
   fun:_Z15vm_init_globalsv
   fun:_ZN7Threads9create_vmEP14JavaVMInitArgsPb
   fun:JNI_CreateJavaVM
   fun:JavaMain
   fun:start_thread
   fun:clone
}
{
   <insert_a_suppression_name_here>
   Memcheck:Leak
   match-leak-kinds: reachable
   fun:malloc
   fun:_ZN2os6mallocEmtPh
   fun:_ZN8CHeapObjILt1792EEnwEmPh
   fun:_ZN8WorkGangC2EPKcjbb
   fun:_ZN10SharedHeapC2EP15CollectorPolicy
   fun:_ZN16GenCollectedHeapC1EP18GenCollectorPolicy
   fun:_ZN8Universe15initialize_heapEv
   fun:_Z13universe_initv
   fun:_Z12init_globalsv
   fun:_ZN7Threads9create_vmEP14JavaVMInitArgsPb
   fun:JNI_CreateJavaVM
   fun:JavaMain
}
{
   <insert_a_suppression_name_here>
   Memcheck:Leak
   match-leak-kinds: reachable
   fun:malloc
   fun:_ZN2os6mallocEmtPh
   fun:_ZN8CHeapObjILt1792EEnwEmPh
   fun:_ZN8OSThread13pd_initializeEv
   fun:_ZN8OSThreadC1EPFiPvES0_
   fun:_ZN2os13create_threadEP6ThreadNS_10ThreadTypeEm
   fun:_ZN8WorkGang18initialize_workersEv
   fun:_ZN16GenCollectedHeapC1EP18GenCollectorPolicy
   fun:_ZN8Universe15initialize_heapEv
   fun:_Z13universe_initv
   fun:_Z12init_globalsv
   fun:_ZN7Threads9create_vmEP14JavaVMInitArgsPb
}
{
   <insert_a_suppression_name_here>
   Memcheck:Leak
   match-leak-kinds: reachable
   fun:malloc
   fun:_ZN2os6mallocEmtPh
   fun:_ZN8CHeapObjILt1792EEnwEmPh
   fun:_ZN12CMSCollectorC1EP29ConcurrentMarkSweepGenerationS1_P11CardTableRSP25ConcurrentMarkSweepPolicy
   fun:_ZN16GenCollectedHeap20create_cms_collectorEv
   fun:_ZN16GenCollectedHeap10initializeEv
   fun:_ZN8Universe15initialize_heapEv
   fun:_Z13universe_initv
   fun:_Z12init_globalsv
   fun:_ZN7Threads9create_vmEP14JavaVMInitArgsPb
   fun:JNI_CreateJavaVM
   fun:JavaMain
}
{
   <insert_a_suppression_name_here>
   Memcheck:Leak
   match-leak-kinds: reachable
   fun:malloc
   fun:_ZN2os6mallocEmtPh
   fun:_ZN8CHeapObjILt1792EEnwEmPh
   fun:_ZN18ConcurrentGCThreadC2Ev
   fun:_ZN25ConcurrentMarkSweepThread5startEP12CMSCollector
   fun:_ZN12CMSCollectorC1EP29ConcurrentMarkSweepGenerationS1_P11CardTableRSP25ConcurrentMarkSweepPolicy
   fun:_ZN16GenCollectedHeap20create_cms_collectorEv
   fun:_ZN16GenCollectedHeap10initializeEv
   fun:_ZN8Universe15initialize_heapEv
   fun:_Z13universe_initv
   fun:_Z12init_globalsv
   fun:_ZN7Threads9create_vmEP14JavaVMInitArgsPb
}
{
   <insert_a_suppression_name_here>
   Memcheck:Leak
   match-leak-kinds: reachable
   fun:malloc
   fun:_ZN2os6mallocEmtPh
   fun:_ZN8CHeapObjILt1792EEnwEmPh
   fun:_ZN8OSThread13pd_initializeEv
   fun:_ZN8OSThreadC1EPFiPvES0_
   fun:_ZN2os13create_threadEP6ThreadNS_10ThreadTypeEm
   fun:_ZN25ConcurrentMarkSweepThread5startEP12CMSCollector
   fun:_ZN12CMSCollectorC1EP29ConcurrentMarkSweepGenerationS1_P11CardTableRSP25ConcurrentMarkSweepPolicy
   fun:_ZN16GenCollectedHeap20create_cms_collectorEv
   fun:_ZN16GenCollectedHeap10initializeEv
   fun:_ZN8Universe15initialize_heapEv
   fun:_Z13universe_initv
}
{
   <insert_a_suppression_name_here>
   Memcheck:Leak
   match-leak-kinds: reachable
   fun:malloc
   fun:_ZN2os6mallocEmtPh
   fun:_ZN8CHeapObjILt1792EEnwEmPh
   fun:JVM_RawMonitorCreate
   fun:ZIP_Get_From_Cache
   fun:ZIP_Open_Generic
   fun:ZIP_Open
   fun:_ZN11ClassLoader23create_class_path_entryEPcPK4statbP6Thread
   fun:_ZN18LazyClassPathEntry13resolve_entryEP6Thread
   fun:_ZN18LazyClassPathEntry11open_streamEPKcP6Thread
   fun:_ZN11ClassLoader14load_classfileEP6SymbolP6Thread
   fun:_ZN16SystemDictionary19load_instance_classEP6Symbol6HandleP6Thread
}
{
   <insert_a_suppression_name_here>
   Memcheck:Leak
   match-leak-kinds: reachable
   fun:malloc
   fun:_ZN2os6mallocEmtPh
   fun:_ZN18ReferenceProcessorC1E9MemRegionbjbjbP17BoolObjectClosureb
   fun:_ZN12CMSCollector18ref_processor_initEv
   fun:_ZN16GenCollectedHeap19ref_processing_initEv
   fun:_ZN16GenCollectedHeap15post_initializeEv
   fun:_Z18universe_post_initv
   fun:_Z12init_globalsv
   fun:_ZN7Threads9create_vmEP14JavaVMInitArgsPb
   fun:JNI_CreateJavaVM
   fun:JavaMain
   fun:start_thread
}
{
   <insert_a_suppression_name_here>
   Memcheck:Leak
   match-leak-kinds: reachable
   fun:malloc
   fun:_ZN2os6mallocEmtPh
   fun:_ZN18ReferenceProcessorC1E9MemRegionbjbjbP17BoolObjectClosureb
   fun:_ZN16ParNewGeneration18ref_processor_initEv
   fun:_ZN16GenCollectedHeap19ref_processing_initEv
   fun:_ZN16GenCollectedHeap15post_initializeEv
   fun:_Z18universe_post_initv
   fun:_Z12init_globalsv
   fun:_ZN7Threads9create_vmEP14JavaVMInitArgsPb
   fun:JNI_CreateJavaVM
   fun:JavaMain
   fun:start_thread
}
{
   <insert_a_suppression_name_here>
   Memcheck:Leak
   match-leak-kinds: reachable
   fun:malloc
   fun:_ZN2os6mallocEmtPh
   fun:_ZN8CHeapObjILt1792EEnwEmPh
   fun:_ZN13MemoryManager25get_parnew_memory_managerEv
   fun:_ZN13MemoryService27add_gen_collected_heap_infoEP16GenCollectedHeap
   fun:_ZN13MemoryService17set_universe_heapEP13CollectedHeap
   fun:_Z18universe_post_initv
   fun:_Z12init_globalsv
   fun:_ZN7Threads9create_vmEP14JavaVMInitArgsPb
   fun:JNI_CreateJavaVM
   fun:JavaMain
   fun:start_thread
}
{
   <insert_a_suppression_name_here>
   Memcheck:Leak
   match-leak-kinds: reachable
   fun:malloc
   fun:_ZN2os6mallocEmtPh
   fun:_ZN8CHeapObjILt1792EEnwEmPh
   fun:_ZN13MemoryManager22get_cms_memory_managerEv
   fun:_ZN13MemoryService27add_gen_collected_heap_infoEP16GenCollectedHeap
   fun:_ZN13MemoryService17set_universe_heapEP13CollectedHeap
   fun:_Z18universe_post_initv
   fun:_Z12init_globalsv
   fun:_ZN7Threads9create_vmEP14JavaVMInitArgsPb
   fun:JNI_CreateJavaVM
   fun:JavaMain
   fun:start_thread
}
{
   <insert_a_suppression_name_here>
   Memcheck:Leak
   match-leak-kinds: reachable
   fun:malloc
   fun:_ZN2os6mallocEmtPh
   fun:_ZN8CHeapObjILt1792EEnwEmPh
   fun:_ZN8OSThread13pd_initializeEv
   fun:_ZN8OSThreadC1EPFiPvES0_
   fun:_ZN2os13create_threadEP6ThreadNS_10ThreadTypeEm
   fun:_ZN7Threads9create_vmEP14JavaVMInitArgsPb
   fun:JNI_CreateJavaVM
   fun:JavaMain
   fun:start_thread
   fun:clone
}
{
   <insert_a_suppression_name_here>
   Memcheck:Leak
   match-leak-kinds: reachable
   fun:malloc
   fun:_ZN2os6mallocEmtPh
   fun:_ZN8CHeapObjILt1792EEnwEmPh
   fun:_ZN8OSThread13pd_initializeEv
   fun:_ZN8OSThreadC1EPFiPvES0_
   fun:_ZN2os13create_threadEP6ThreadNS_10ThreadTypeEm
   fun:_ZN10JavaThreadC2EPFvPS_P6ThreadEm
   fun:_ZN21SurrogateLockerThreadC1Ev
   fun:_ZN21SurrogateLockerThread4makeEP6Thread
   fun:_ZN25ConcurrentMarkSweepThread25makeSurrogateLockerThreadEP6Thread
   fun:_ZN7Threads9create_vmEP14JavaVMInitArgsPb
   fun:JNI_CreateJavaVM
}
{
   <insert_a_suppression_name_here>
   Memcheck:Leak
   match-leak-kinds: reachable
   fun:malloc
   fun:_ZN2os6mallocEmtPh
   fun:_ZN8CHeapObjILt1792EEnwEmPh
   fun:_ZN6ThreadC2Ev
   fun:_ZN10JavaThreadC1EPFvPS_P6ThreadEm
   fun:_ZN2os11signal_initEv
   fun:_ZN7Threads9create_vmEP14JavaVMInitArgsPb
   fun:JNI_CreateJavaVM
   fun:JavaMain
   fun:start_thread
   fun:clone
}
{
   <insert_a_suppression_name_here>
   Memcheck:Leak
   match-leak-kinds: reachable
   fun:malloc
   fun:_ZN2os6mallocEmtPh
   fun:_ZN8CHeapObjILt1792EEnwEmPh
   fun:_ZN8OSThread13pd_initializeEv
   fun:_ZN8OSThreadC1EPFiPvES0_
   fun:_ZN2os13create_threadEP6ThreadNS_10ThreadTypeEm
   fun:_ZN10JavaThreadC1EPFvPS_P6ThreadEm
   fun:_ZN2os11signal_initEv
   fun:_ZN7Threads9create_vmEP14JavaVMInitArgsPb
   fun:JNI_CreateJavaVM
   fun:JavaMain
   fun:start_thread
}
{
   <insert_a_suppression_name_here>
   Memcheck:Leak
   match-leak-kinds: reachable
   fun:malloc
   fun:_ZN2os6mallocEmtPh
   fun:_ZN8CHeapObjILt1792EEnwEmPh
   fun:_ZN8OSThread13pd_initializeEv
   fun:_ZN8OSThreadC1EPFiPvES0_
   fun:_ZN2os13create_threadEP6ThreadNS_10ThreadTypeEm
   fun:_ZN10JavaThreadC2EPFvPS_P6ThreadEm
   fun:_ZN13ServiceThread10initializeEv
   fun:_ZN10Management10initializeEP6Thread
   fun:_ZN7Threads9create_vmEP14JavaVMInitArgsPb
   fun:JNI_CreateJavaVM
   fun:JavaMain
}
{
   <insert_a_suppression_name_here>
   Memcheck:Leak
   match-leak-kinds: reachable
   fun:malloc
   fun:_ZN2os6mallocEmtPh
   fun:_ZN8CHeapObjILt1792EEnwEmPh
   fun:_ZN8OSThread13pd_initializeEv
   fun:_ZN8OSThreadC1EPFiPvES0_
   fun:_ZN2os13create_threadEP6ThreadNS_10ThreadTypeEm
   fun:_ZN10JavaThreadC1EPFvPS_P6ThreadEm
   fun:JVM_StartThread
   obj:*
   obj:*
   obj:*
   obj:*
}
{
   <insert_a_suppression_name_here>
   Memcheck:Leak
   match-leak-kinds: reachable
   fun:malloc
   fun:_ZN2os6mallocEmtPh
   fun:_ZN8CHeapObjILt1792EEnwEmPh
   fun:_ZN8OSThread13pd_initializeEv
   fun:_ZN8OSThreadC1EPFiPvES0_
   fun:_ZN2os22create_attached_threadEP10JavaThread
   fun:attach_current_thread
   fun:jni_DestroyJavaVM
   fun:JavaMain
   fun:start_thread
   fun:clone
}
{
   <insert_a_suppression_name_here>
   Memcheck:Leak
   match-leak-kinds: reachable
   fun:malloc
   fun:_ZN2os6mallocEmtPh
   fun:_ZN8CHeapObjILt1024EEnwEmPh
   fun:_ZN21AdapterHandlerLibrary11get_adapterE12methodHandle
   fun:_ZN13methodOopDesc13make_adaptersE12methodHandleP6Thread
   fun:_ZN8Rewriter17relocate_and_linkE19instanceKlassHandle14objArrayHandleP6Thread
   fun:_ZN13instanceKlass15link_class_implE19instanceKlassHandlebP6Thread
   fun:_ZN13instanceKlass15link_class_implE19instanceKlassHandlebP6Thread
   fun:_ZN13instanceKlass15link_class_implE19instanceKlassHandlebP6Thread
   fun:_ZN13instanceKlass15link_class_implE19instanceKlassHandlebP6Thread
   fun:_ZN13instanceKlass18link_class_or_failEP6Thread
   fun:_Z18universe_post_initv
}
{
   <insert_a_suppression_name_here>
   Memcheck:Leak
   match-leak-kinds: reachable
   fun:malloc
   fun:_ZN2os6mallocEmtPh
   fun:_ZN8CHeapObjILt1024EEnwEmPh
   fun:_ZN21AdapterHandlerLibrary11get_adapterE12methodHandle
   fun:_ZN13methodOopDesc13make_adaptersE12methodHandleP6Thread
   fun:_ZN8Rewriter17relocate_and_linkE19instanceKlassHandle14objArrayHandleP6Thread
   fun:_ZN13instanceKlass15link_class_implE19instanceKlassHandlebP6Thread
   fun:_ZN13instanceKlass15initialize_implE19instanceKlassHandleP6Thread
   fun:_ZN13instanceKlass10initializeEP6Thread
   fun:_ZN12LinkResolver13resolve_fieldER15FieldAccessInfo18constantPoolHandleiN9Bytecodes4CodeEbbP6Thread
   fun:_ZN12LinkResolver13resolve_fieldER15FieldAccessInfo18constantPoolHandleiN9Bytecodes4CodeEbP6Thread
   fun:_ZN18InterpreterRuntime15resolve_get_putEP10JavaThreadN9Bytecodes4CodeE
}
{
   <insert_a_suppression_name_here>
   Memcheck:Leak
   match-leak-kinds: possible
   fun:malloc
   fun:_ZN2os6mallocEmtPh
   fun:_ZN8CHeapObjILt1792EEnwEmPh
   fun:_ZN6ThreadC2Ev
   fun:_ZN11NamedThreadC2Ev
   fun:_ZN8WorkGang15allocate_workerEj
   fun:_ZN8WorkGang18initialize_workersEv
   fun:_ZN16GenCollectedHeapC1EP18GenCollectorPolicy
   fun:_ZN8Universe15initialize_heapEv
   fun:_Z13universe_initv
   fun:_Z12init_globalsv
   fun:_ZN7Threads9create_vmEP14JavaVMInitArgsPb
}
{
   <insert_a_suppression_name_here>
   Memcheck:Leak
   match-leak-kinds: possible
   fun:malloc
   fun:_ZN2os6mallocEmtPh
   fun:_ZN8CHeapObjILt1792EEnwEmPh
   fun:_ZN6ThreadC2Ev
   fun:_ZN11NamedThreadC2Ev
   fun:_ZN18ConcurrentGCThreadC2Ev
   fun:_ZN25ConcurrentMarkSweepThread5startEP12CMSCollector
   fun:_ZN12CMSCollectorC1EP29ConcurrentMarkSweepGenerationS1_P11CardTableRSP25ConcurrentMarkSweepPolicy
   fun:_ZN16GenCollectedHeap20create_cms_collectorEv
   fun:_ZN16GenCollectedHeap10initializeEv
   fun:_ZN8Universe15initialize_heapEv
   fun:_Z13universe_initv
}
{
   <insert_a_suppression_name_here>
   Memcheck:Leak
   match-leak-kinds: possible
   fun:malloc
   fun:_ZN2os6mallocEmtPh
   fun:_ZN8CHeapObjILt1792EEnwEmPh
   fun:_ZN6ThreadC2Ev
   fun:_ZN11NamedThreadC2Ev
   fun:_ZN8VMThread6createEv
   fun:_ZN7Threads9create_vmEP14JavaVMInitArgsPb
   fun:JNI_CreateJavaVM
   fun:JavaMain
   fun:start_thread
   fun:clone
}
{
   <insert_a_suppression_name_here>
   Memcheck:Leak
   match-leak-kinds: possible
   fun:malloc
   fun:_ZN2os6mallocEmtPh
   fun:_ZN8CHeapObjILt1792EEnwEmPh
   fun:_ZN6ThreadC2Ev
   fun:_ZN10JavaThreadC2EPFvPS_P6ThreadEm
   fun:_ZN21SurrogateLockerThreadC1Ev
   fun:_ZN21SurrogateLockerThread4makeEP6Thread
   fun:_ZN25ConcurrentMarkSweepThread25makeSurrogateLockerThreadEP6Thread
   fun:_ZN7Threads9create_vmEP14JavaVMInitArgsPb
   fun:JNI_CreateJavaVM
   fun:JavaMain
   fun:start_thread
}
{
   <insert_a_suppression_name_here>
   Memcheck:Leak
   match-leak-kinds: possible
   fun:malloc
   fun:_ZN2os6mallocEmtPh
   fun:_ZN8CHeapObjILt1792EEnwEmPh
   fun:_ZN6ThreadC2Ev
   fun:_ZN10JavaThreadC2EPFvPS_P6ThreadEm
   fun:_ZN13ServiceThread10initializeEv
   fun:_ZN10Management10initializeEP6Thread
   fun:_ZN7Threads9create_vmEP14JavaVMInitArgsPb
   fun:JNI_CreateJavaVM
   fun:JavaMain
   fun:start_thread
   fun:clone
}
{
   <insert_a_suppression_name_here>
   Memcheck:Leak
   match-leak-kinds: possible
   fun:malloc
   fun:_ZN2os6mallocEmtPh
   fun:_ZN8CHeapObjILt1792EEnwEmPh
   fun:_ZN6ThreadC2Ev
   fun:_ZN10JavaThreadC1EPFvPS_P6ThreadEm
   fun:JVM_StartThread
   obj:*
   obj:*
   obj:*
   obj:*
   obj:*
   obj:*
}
{
   <insert_a_suppression_name_here>
   Memcheck:Leak
   match-leak-kinds: possible
   fun:malloc
   fun:_ZN2os6mallocEmtPh
   fun:_ZN8CHeapObjILt1792EEnwEmPh
   fun:_ZN6ThreadC2Ev
   fun:_ZN10JavaThreadC1EPFvPS_P6ThreadEm
   fun:JVM_StartThread
   obj:*
   obj:*
   obj:*
   obj:*
   obj:*
   fun:_ZN9JavaCalls11call_helperEP9JavaValueP12methodHandleP17JavaCallArgumentsP6Thread
}
{
   <insert_a_suppression_name_here>
   Memcheck:Leak
   match-leak-kinds: possible
   fun:malloc
   fun:_ZN2os6mallocEmtPh
   fun:_ZN21LoaderConstraintTable24extend_loader_constraintEP21LoaderConstraintEntry6HandleP12klassOopDesc
   fun:_ZN21LoaderConstraintTable9add_entryEP6SymbolP12klassOopDesc6HandleS3_S4_
   fun:_ZN16SystemDictionary21add_loader_constraintEP6Symbol6HandleS2_P6Thread
   fun:_ZN16SystemDictionary23check_signature_loadersEP6Symbol6HandleS2_bP6Thread
   fun:_ZN11klassVtable23update_inherited_vtableEP13instanceKlass12methodHandleibP6Thread
   fun:_ZN11klassVtable17initialize_vtableEbP6Thread
   fun:_ZN13instanceKlass15link_class_implE19instanceKlassHandlebP6Thread
   fun:JVM_GetClassDeclaredConstructors
   obj:*
   obj:*
}
{
   <insert_a_suppression_name_here>
   Memcheck:Leak
   match-leak-kinds: possible
   fun:malloc
   fun:_ZN2os6mallocEmtPh
   fun:_ZN8CHeapObjILt1792EEnwEmPh
   fun:_ZN6ThreadC2Ev
   fun:_ZN10JavaThreadC1Eb
   fun:attach_current_thread
   fun:jni_DestroyJavaVM
   fun:JavaMain
   fun:start_thread
   fun:clone
}
{
   <insert_a_suppression_name_here>
   Memcheck:Leak
   match-leak-kinds: indirect
   fun:malloc
   fun:_ZN2os6mallocEmtPh
   fun:_ZN8CHeapObjILt1792EEnwEmPh
   fun:_ZN6ThreadC2Ev
   fun:_ZN13WatcherThread5startEv
   fun:_ZN7Threads9create_vmEP14JavaVMInitArgsPb
   fun:JNI_CreateJavaVM
   fun:JavaMain
   fun:start_thread
   fun:clone
}
{
   <insert_a_suppression_name_here>
   Memcheck:Leak
   match-leak-kinds: indirect
   fun:malloc
   fun:_ZN2os6mallocEmtPh
   fun:_ZN8CHeapObjILt1792EEnwEmPh
   fun:_ZN8OSThread13pd_initializeEv
   fun:_ZN8OSThreadC1EPFiPvES0_
   fun:_ZN2os13create_threadEP6ThreadNS_10ThreadTypeEm
   fun:_ZN13WatcherThread5startEv
   fun:_ZN7Threads9create_vmEP14JavaVMInitArgsPb
   fun:JNI_CreateJavaVM
   fun:JavaMain
   fun:start_thread
   fun:clone
}
{
   <insert_a_suppression_name_here>
   Memcheck:Leak
   match-leak-kinds: definite
   fun:malloc
   fun:_ZN2os6mallocEmtPh
   fun:_ZN9Arguments12add_propertyEPKc
   fun:_ZN9Arguments22parse_each_vm_init_argEPK14JavaVMInitArgsP12SysClassPathPb15FlagValueOrigin
   fun:_ZN9Arguments18parse_vm_init_argsEPK14JavaVMInitArgs
   fun:_ZN9Arguments5parseEPK14JavaVMInitArgs
   fun:_ZN7Threads9create_vmEP14JavaVMInitArgsPb
   fun:JNI_CreateJavaVM
   fun:JavaMain
   fun:start_thread
   fun:clone
}
{
   <insert_a_suppression_name_here>
   Memcheck:Leak
   match-leak-kinds: reachable
   fun:malloc
   fun:_ZN2os6mallocEmtPh
   fun:_ZN6SymbolnwEmiP6Thread
   fun:_ZN11SymbolTable15allocate_symbolEPKhibP6Thread
   fun:_ZN11SymbolTable9basic_addEiPhijbP6Thread
   fun:_ZN11SymbolTable6lookupEPK6SymboliiP6Thread
   fun:_ZN15SignatureStream9as_symbolEP6Thread
   fun:_ZN13StackMapFrame19set_locals_from_argE12methodHandle16VerificationTypeP6Thread
   fun:_ZN13ClassVerifier13verify_methodE12methodHandleP6Thread
   fun:_ZN13ClassVerifier12verify_classEP6Thread
   fun:_ZN8Verifier6verifyE19instanceKlassHandleNS_4ModeEbP6Thread
   fun:_ZN13instanceKlass15link_class_implE19instanceKlassHandlebP6Thread
}
{
   <insert_a_suppression_name_here>
   Memcheck:Leak
   match-leak-kinds: possible
   fun:malloc
   fun:_ZN2os6mallocEmtPh
   fun:_Z12AllocateHeapmtPhN17AllocFailStrategy13AllocFailEnumE
   fun:_ZN11ClassLoader11add_packageEPKciP6Thread
   fun:_ZN11ClassLoader14load_classfileEP6SymbolP6Thread
   fun:_ZN16SystemDictionary19load_instance_classEP6Symbol6HandleP6Thread
   fun:_ZN16SystemDictionary30resolve_instance_class_or_nullEP6Symbol6HandleS2_P6Thread
   fun:_ZN16SystemDictionary15resolve_or_nullEP6Symbol6HandleS2_P6Thread
   fun:JVM_FindClassFromBootLoader
   fun:Java_java_lang_ClassLoader_findBootstrapClass
   obj:*
   obj:*
}
{
   <insert_a_suppression_name_here>
   Memcheck:Leak
   match-leak-kinds: reachable
   fun:malloc
   fun:_ZN2os6mallocEmtPh
   fun:_ZN8CHeapObjILt1280EEnwEmPh
   fun:_ZN8Universe15initialize_heapEv
   fun:_Z13universe_initv
   fun:_Z12init_globalsv
   fun:_ZN7Threads9create_vmEP14JavaVMInitArgsPb
   fun:JNI_CreateJavaVM
   fun:JavaMain
   fun:start_thread
   fun:clone
}
{
   <insert_a_suppression_name_here>
   Memcheck:Leak
   match-leak-kinds: reachable
   fun:malloc
   fun:_ZN2os6mallocEmtPh
   fun:_Z12AllocateHeapmtPhN17AllocFailStrategy13AllocFailEnumE
   fun:_ZN13instanceKlass14get_jmethod_idE19instanceKlassHandle12methodHandle
   fun:_ZL13get_method_idP7JNIEnv_P7_jclassPKcS4_bP6Thread
   fun:jni_GetStaticMethodID
   fun:JNI_OnLoad
   fun:Java_java_lang_ClassLoader_00024NativeLibrary_load
   obj:*
   obj:*
   obj:*
   obj:*
}
{
   <insert_a_suppression_name_here>
   Memcheck:Leak
   match-leak-kinds: reachable
   fun:malloc
   fun:strdup
   fun:ZIP_Put_In_Cache0
   fun:Java_java_util_zip_ZipFile_open
   obj:*
   obj:*
   obj:*
   obj:*
   obj:*
   obj:*
   obj:*
   obj:*
}
{
   <insert_a_suppression_name_here>
   Memcheck:Leak
   match-leak-kinds: possible
   fun:malloc
   fun:_ZN2os6mallocEmtPh
   fun:_Z12AllocateHeapmtPhN17AllocFailStrategy13AllocFailEnumE
   fun:_ZN11ClassLoader11add_packageEPKciP6Thread
   fun:_ZN11ClassLoader14load_classfileEP6SymbolP6Thread
   fun:_ZN16SystemDictionary19load_instance_classEP6Symbol6HandleP6Thread
   fun:_ZN16SystemDictionary30resolve_instance_class_or_nullEP6Symbol6HandleS2_P6Thread
   fun:_ZN16SystemDictionary15resolve_or_nullEP6Symbol6HandleS2_P6Thread
   fun:_ZN16SystemDictionary15resolve_or_failEP6Symbol6HandleS2_bP6Thread
   fun:_ZN19constantPoolOopDesc13klass_at_implE18constantPoolHandleiP6Thread
   fun:_ZN18InterpreterRuntime4_newEP10JavaThreadP19constantPoolOopDesci
   obj:*
}
{
   <insert_a_suppression_name_here>
   Memcheck:Leak
   match-leak-kinds: reachable
   fun:malloc
   fun:add_to_global
   fun:dl_open_worker
   fun:_dl_catch_exception
   fun:_dl_open
   fun:dlopen_doit
   fun:_dl_catch_exception
   fun:_dl_catch_error
   fun:_dlerror_run
   fun:dlopen@@GLIBC_2.2.5
   fun:LoadJavaVM
   fun:JLI_Launch
}
{
   <insert_a_suppression_name_here>
   Memcheck:Leak
   match-leak-kinds: reachable
   fun:calloc
   fun:_dl_check_map_versions
   fun:dl_open_worker
   fun:_dl_catch_exception
   fun:_dl_open
   fun:dlopen_doit
   fun:_dl_catch_exception
   fun:_dl_catch_error
   fun:_dlerror_run
   fun:dlopen@@GLIBC_2.2.5
   fun:_ZN2os8dll_loadEPKcPci
   fun:_ZN11ClassLoader16load_zip_libraryEv
}
{
   <insert_a_suppression_name_here>
   Memcheck:Leak
   match-leak-kinds: possible
   fun:malloc
   fun:JLI_MemAlloc
   fun:CheckJvmType
   fun:CreateExecutionEnvironment
   fun:JLI_Launch
   fun:main
}
{
   <insert_a_suppression_name_here>
   Memcheck:Leak
   match-leak-kinds: definite
   fun:malloc
   fun:JLI_MemAlloc
   fun:CreateExecutionEnvironment
   fun:JLI_Launch
   fun:main
}
{
   <insert_a_suppression_name_here>
   Memcheck:Leak
   match-leak-kinds: reachable
   fun:malloc
   fun:_ZN2os6mallocEmtPh
   fun:_ZN8CHeapObjILt1280EEnwEmPh
   fun:_ZN14CardGenerationC2E13ReservedSpacemiP9GenRemSet
   fun:_ZN29ConcurrentMarkSweepGenerationC1E13ReservedSpacemiP11CardTableRSbN19FreeBlockDictionaryI9FreeChunkE16DictionaryChoiceE
   fun:_ZN14GenerationSpec4initE13ReservedSpaceiP9GenRemSet
   fun:_ZN16GenCollectedHeap10initializeEv
   fun:_ZN8Universe15initialize_heapEv
   fun:_Z13universe_initv
   fun:_Z12init_globalsv
   fun:_ZN7Threads9create_vmEP14JavaVMInitArgsPb
   fun:JNI_CreateJavaVM
}
{
   <insert_a_suppression_name_here>
   Memcheck:Leak
   match-leak-kinds: reachable
   fun:malloc
   fun:_ZN2os6mallocEmtPh
   fun:_ZN8CHeapObjILt1280EEnwEmPh
   fun:_ZN14CardGenerationC2E13ReservedSpacemiP9GenRemSet
   fun:_ZN29ConcurrentMarkSweepGenerationC2E13ReservedSpacemiP11CardTableRSbN19FreeBlockDictionaryI9FreeChunkE16DictionaryChoiceE
   fun:_ZN10CMSPermGenC1E13ReservedSpacemP11CardTableRSN19FreeBlockDictionaryI9FreeChunkE16DictionaryChoiceE
   fun:_ZN23PermanentGenerationSpec4initE13ReservedSpacemP9GenRemSet
   fun:_ZN16GenCollectedHeap10initializeEv
   fun:_ZN8Universe15initialize_heapEv
   fun:_Z13universe_initv
   fun:_Z12init_globalsv
   fun:_ZN7Threads9create_vmEP14JavaVMInitArgsPb
}
{
   <insert_a_suppression_name_here>
   Memcheck:Leak
   match-leak-kinds: reachable
   fun:malloc
   fun:_ZN2os6mallocEmtPh
   fun:_ZN8CHeapObjILt1280EEnwEmPh
   fun:_ZN11CardTableRSC1E9MemRegioni
   fun:_ZN15CollectorPolicy14create_rem_setE9MemRegioni
   fun:_ZN16GenCollectedHeap10initializeEv
   fun:_ZN8Universe15initialize_heapEv
   fun:_Z13universe_initv
   fun:_Z12init_globalsv
   fun:_ZN7Threads9create_vmEP14JavaVMInitArgsPb
   fun:JNI_CreateJavaVM
   fun:JavaMain
}
{
   <insert_a_suppression_name_here>
   Memcheck:Leak
   match-leak-kinds: reachable
   fun:malloc
   fun:_ZN2os6mallocEmtPh
   fun:_ZN15GCMemoryManager23initialize_gc_stat_infoEv
   fun:_ZN13MemoryService17set_universe_heapEP13CollectedHeap
   fun:_Z18universe_post_initv
   fun:_Z12init_globalsv
   fun:_ZN7Threads9create_vmEP14JavaVMInitArgsPb
   fun:JNI_CreateJavaVM
   fun:JavaMain
   fun:start_thread
   fun:clone
}
{
   <insert_a_suppression_name_here>
   Memcheck:Leak
   match-leak-kinds: reachable
   fun:malloc
   fun:_ZN2os6mallocEmtPh
   fun:_ZN8CHeapObjILt1792EEnwEmPh
   fun:_ZN9Arguments23PropertyList_unique_addEPP14SystemPropertyPKcPch
   fun:_ZN9Arguments12add_propertyEPKc
   fun:_ZN9Arguments22parse_each_vm_init_argEPK14JavaVMInitArgsP12SysClassPathPb15FlagValueOrigin
   fun:_ZN9Arguments18parse_vm_init_argsEPK14JavaVMInitArgs
   fun:_ZN9Arguments5parseEPK14JavaVMInitArgs
   fun:_ZN7Threads9create_vmEP14JavaVMInitArgsPb
   fun:JNI_CreateJavaVM
   fun:JavaMain
   fun:start_thread
}
{
   <insert_a_suppression_name_here>
   Memcheck:Leak
   match-leak-kinds: reachable
   fun:malloc
   fun:_ZN2os6mallocEmtPh
   fun:_ZN8CHeapObjILt1792EEnwEmPh
   fun:_ZN6Events4initEv
   fun:_Z15vm_init_globalsv
   fun:_ZN7Threads9create_vmEP14JavaVMInitArgsPb
   fun:JNI_CreateJavaVM
   fun:JavaMain
   fun:start_thread
   fun:clone
}
{
   <insert_a_suppression_name_here>
   Memcheck:Leak
   match-leak-kinds: reachable
   fun:malloc
   fun:_ZN2os6mallocEmtPh
   fun:_ZN8CHeapObjILt1792EEnwEmPh
   fun:_ZN13CollectedHeapC2Ev
   fun:_ZN10SharedHeapC2EP15CollectorPolicy
   fun:_ZN16GenCollectedHeapC1EP18GenCollectorPolicy
   fun:_ZN8Universe15initialize_heapEv
   fun:_Z13universe_initv
   fun:_Z12init_globalsv
   fun:_ZN7Threads9create_vmEP14JavaVMInitArgsPb
   fun:JNI_CreateJavaVM
   fun:JavaMain
}
{
   <insert_a_suppression_name_here>
   Memcheck:Leak
   match-leak-kinds: reachable
   fun:malloc
   fun:_ZN2os6mallocEmtPh
   fun:_ZN8CHeapObjILt1792EEnwEmPh
   fun:_Z18compileBroker_initv
   fun:_Z12init_globalsv
   fun:_ZN7Threads9create_vmEP14JavaVMInitArgsPb
   fun:JNI_CreateJavaVM
   fun:JavaMain
   fun:start_thread
   fun:clone
}
{
   <insert_a_suppression_name_here>
   Memcheck:Leak
   match-leak-kinds: reachable
   fun:malloc
   fun:_ZN2os6mallocEmtPh
   fun:_ZN8CHeapObjILt1792EEnwEmPh
   fun:_ZN6Parker8AllocateEP10JavaThread
   fun:_ZN10JavaThread10initializeEv
   fun:_ZN10JavaThreadC1EPFvPS_P6ThreadEm
   fun:JVM_StartThread
   obj:*
   obj:*
   obj:*
   obj:*
   obj:*
}
{
   <insert_a_suppression_name_here>
   Memcheck:Leak
   match-leak-kinds: possible
   fun:malloc
   fun:_ZN2os6mallocEmtPh
   fun:_ZN8CHeapObjILt1792EEnwEmPh
   fun:_ZN6Parker8AllocateEP10JavaThread
   fun:_ZN10JavaThread10initializeEv
   fun:_ZN10JavaThreadC1Eb
   fun:_ZN7Threads9create_vmEP14JavaVMInitArgsPb
   fun:JNI_CreateJavaVM
   fun:JavaMain
   fun:start_thread
   fun:clone
}
{
   <insert_a_suppression_name_here>
   Memcheck:Leak
   match-leak-kinds: possible
   fun:malloc
   fun:_ZN2os6mallocEmtPh
   fun:_ZN8CHeapObjILt1792EEnwEmPh
   fun:_ZN6Parker8AllocateEP10JavaThread
   fun:_ZN10JavaThread10initializeEv
   fun:_ZN10JavaThreadC2EPFvPS_P6ThreadEm
   fun:_ZN21SurrogateLockerThreadC1Ev
   fun:_ZN21SurrogateLockerThread4makeEP6Thread
   fun:_ZN25ConcurrentMarkSweepThread25makeSurrogateLockerThreadEP6Thread
   fun:_ZN7Threads9create_vmEP14JavaVMInitArgsPb
   fun:JNI_CreateJavaVM
   fun:JavaMain
}
{
   <insert_a_suppression_name_here>
   Memcheck:Leak
   match-leak-kinds: possible
   fun:malloc
   fun:_ZN2os6mallocEmtPh
   fun:_ZN8CHeapObjILt1792EEnwEmPh
   fun:_ZN6Parker8AllocateEP10JavaThread
   fun:_ZN10JavaThread10initializeEv
   fun:_ZN10JavaThreadC1EPFvPS_P6ThreadEm
   fun:_ZN2os11signal_initEv
   fun:_ZN7Threads9create_vmEP14JavaVMInitArgsPb
   fun:JNI_CreateJavaVM
   fun:JavaMain
   fun:start_thread
   fun:clone
}
{
   <insert_a_suppression_name_here>
   Memcheck:Leak
   match-leak-kinds: possible
   fun:malloc
   fun:_ZN2os6mallocEmtPh
   fun:_ZN8CHeapObjILt1792EEnwEmPh
   fun:_ZN6Parker8AllocateEP10JavaThread
   fun:_ZN10JavaThread10initializeEv
   fun:_ZN10JavaThreadC2EPFvPS_P6ThreadEm
   fun:_ZN13ServiceThread10initializeEv
   fun:_ZN10Management10initializeEP6Thread
   fun:_ZN7Threads9create_vmEP14JavaVMInitArgsPb
   fun:JNI_CreateJavaVM
   fun:JavaMain
   fun:start_thread
}
{
   <insert_a_suppression_name_here>
   Memcheck:Leak
   match-leak-kinds: possible
   fun:malloc
   fun:_ZN2os6mallocEmtPh
   fun:_ZN8CHeapObjILt1792EEnwEmPh
   fun:_ZN6Parker8AllocateEP10JavaThread
   fun:_ZN10JavaThread10initializeEv
   fun:_ZN10JavaThreadC1EPFvPS_P6ThreadEm
   fun:JVM_StartThread
   obj:*
   obj:*
   obj:*
   obj:*
   obj:*
}
{
   <insert_a_suppression_name_here>
   Memcheck:Leak
   match-leak-kinds: reachable
   fun:malloc
   fun:_ZN2os6mallocEmtPh
   fun:_Z12AllocateHeapmtPhN17AllocFailStrategy13AllocFailEnumE
   fun:_ZN13instanceKlass14get_jmethod_idE19instanceKlassHandle12methodHandle
   fun:_ZL13get_method_idP7JNIEnv_P7_jclassPKcS4_bP6Thread
   fun:jni_GetMethodID
   fun:Java_java_net_Inet4Address_init
   obj:*
   obj:*
   obj:*
   fun:_ZN9JavaCalls11call_helperEP9JavaValueP12methodHandleP17JavaCallArgumentsP6Thread
   fun:_ZN9JavaCalls4callEP9JavaValue12methodHandleP17JavaCallArgumentsP6Thread
}
{
   <insert_a_suppression_name_here>
   Memcheck:Leak
   match-leak-kinds: reachable
   fun:malloc
   fun:strdup
   fun:_dl_load_cache_lookup
   fun:_dl_map_object
   fun:openaux
   fun:_dl_catch_exception
   fun:_dl_map_object_deps
   fun:dl_open_worker
   fun:_dl_catch_exception
   fun:_dl_open
   fun:dlopen_doit
   fun:_dl_catch_exception
}
{
   <insert_a_suppression_name_here>
   Memcheck:Leak
   match-leak-kinds: reachable
   fun:malloc
   fun:strdup
   fun:_ZN10VM_Version22get_processor_featuresEv
   fun:_ZN10VM_Version10initializeEv
   fun:_Z12init_globalsv
   fun:_ZN7Threads9create_vmEP14JavaVMInitArgsPb
   fun:JNI_CreateJavaVM
   fun:JavaMain
   fun:start_thread
   fun:clone
}
{
   <insert_a_suppression_name_here>
   Memcheck:Leak
   match-leak-kinds: definite
   fun:malloc
   fun:JLI_MemAlloc
   fun:JLI_Launch
   fun:main
}
{
   <insert_a_suppression_name_here>
   Memcheck:Leak
   match-leak-kinds: definite
   fun:malloc
   fun:JLI_MemAlloc
   fun:ParseArguments
   fun:JLI_Launch
   fun:main
}
{
   <insert_a_suppression_name_here>
   Memcheck:Leak
   match-leak-kinds: reachable
   fun:calloc
   fun:ZIP_Put_In_Cache0
   fun:ZIP_Open
   fun:_ZN11ClassLoader23create_class_path_entryEPcPK4statbP6Thread
   fun:_ZN18LazyClassPathEntry13resolve_entryEP6Thread
   fun:_ZN18LazyClassPathEntry11open_streamEPKcP6Thread
   fun:_ZN11ClassLoader14load_classfileEP6SymbolP6Thread
   fun:_ZN16SystemDictionary19load_instance_classEP6Symbol6HandleP6Thread
   fun:_ZN16SystemDictionary30resolve_instance_class_or_nullEP6Symbol6HandleS2_P6Thread
   fun:_ZN16SystemDictionary15resolve_or_nullEP6Symbol6HandleS2_P6Thread
   fun:_ZN16SystemDictionary28initialize_preloaded_classesEP6Thread
   fun:_ZN8Universe7genesisEP6Thread
}
{
   <insert_a_suppression_name_here>
   Memcheck:Leak
   match-leak-kinds: reachable
   fun:malloc
   fun:_ZN2os6mallocEmtPh
   fun:_Z12AllocateHeapmtPhN17AllocFailStrategy13AllocFailEnumE
   fun:_ZN13instanceKlass14get_jmethod_idE19instanceKlassHandle12methodHandle
   fun:_ZL13get_method_idP7JNIEnv_P7_jclassPKcS4_bP6Thread
   fun:jni_GetStaticMethodID
   fun:JavaMain
   fun:start_thread
   fun:clone
}
{
   <insert_a_suppression_name_here>
   Memcheck:Leak
   match-leak-kinds: reachable
   fun:calloc
   fun:ZIP_Put_In_Cache0
   fun:ZIP_Open
   fun:_ZN11ClassLoader23create_class_path_entryEPcPK4statbP6Thread
   fun:_ZN18LazyClassPathEntry13resolve_entryEP6Thread
   fun:_ZN18LazyClassPathEntry11open_streamEPKcP6Thread
   fun:_ZN11ClassLoader14load_classfileEP6SymbolP6Thread
   fun:_ZN16SystemDictionary19load_instance_classEP6Symbol6HandleP6Thread
   fun:_ZN16SystemDictionary30resolve_instance_class_or_nullEP6Symbol6HandleS2_P6Thread
   fun:_ZN16SystemDictionary15resolve_or_nullEP6Symbol6HandleS2_P6Thread
   fun:JVM_FindClassFromBootLoader
   fun:Java_java_lang_ClassLoader_findBootstrapClass
}
{
   <insert_a_suppression_name_here>
   Memcheck:Leak
   match-leak-kinds: reachable
   fun:malloc
   fun:_ZN2os6mallocEmtPh
   fun:_ZN8CHeapObjILt1536EEnwEmPh
   fun:_ZN13CompileBroker19create_compile_taskEP12CompileQueuei12methodHandleiiS2_iPKcb
   fun:_ZN13CompileBroker19compile_method_baseE12methodHandleiiS0_iPKcP6Thread
   fun:_ZN13CompileBroker14compile_methodE12methodHandleiiS0_iPKcP6Thread
   fun:_ZN16SimpleCompPolicy23method_invocation_eventE12methodHandleP10JavaThread
   fun:_ZN19NonTieredCompPolicy5eventE12methodHandleS0_ii9CompLevelP7nmethodP10JavaThread
   fun:_ZN18InterpreterRuntime32frequency_counter_overflow_innerEP10JavaThreadPh
   fun:_ZN18InterpreterRuntime26frequency_counter_overflowEP10JavaThreadPh
   obj:*
   obj:*
}
{
   <insert_a_suppression_name_here>
   Memcheck:Leak
   match-leak-kinds: reachable
   fun:malloc
   fun:dl_open_worker
   fun:_dl_catch_exception
   fun:_dl_open
   fun:dlopen_doit
   fun:_dl_catch_exception
   fun:_dl_catch_error
   fun:_dlerror_run
   fun:dlopen@@GLIBC_2.2.5
   fun:_ZN2os8dll_loadEPKcPci
   fun:JVM_LoadLibrary
   fun:Java_java_lang_ClassLoader_00024NativeLibrary_load
}
{
   <insert_a_suppression_name_here>
   Memcheck:Leak
   match-leak-kinds: definite
   fun:malloc
   fun:__libc_alloc_buffer_allocate
   fun:alloc_buffer_allocate
   fun:__resolv_conf_allocate
   fun:__resolv_conf_load
   fun:__resolv_conf_get_current
   fun:__res_vinit
   fun:maybe_init
   fun:context_get
   fun:__resolv_context_get
   fun:gaih_inet.constprop.7
   fun:getaddrinfo
   fun:Java_java_net_Inet6AddressImpl_lookupAllHostAddr
   obj:*
   obj:*
}
{
   <insert_a_suppression_name_here>
   Memcheck:Leak
   match-leak-kinds: reachable
   fun:malloc
   fun:_ZN2os6mallocEmtPh
   fun:_ZN8CHeapObjILt512EEnwEmPh
   fun:_ZN22ThreadLocalAllocBuffer22startup_initializationEv
   fun:_ZN8Universe15initialize_heapEv
   fun:_Z13universe_initv
   fun:_Z12init_globalsv
   fun:_ZN7Threads9create_vmEP14JavaVMInitArgsPb
   fun:JNI_CreateJavaVM
   fun:JavaMain
   fun:start_thread
   fun:clone
}
{
   <insert_a_suppression_name_here>
   Memcheck:Leak
   match-leak-kinds: possible
   fun:malloc
   fun:_ZN2os6mallocEmtPh
   fun:_Z12AllocateHeapmtPhN17AllocFailStrategy13AllocFailEnumE
   fun:_ZN11ClassLoader11add_packageEPKciP6Thread
   fun:_ZN11ClassLoader14load_classfileEP6SymbolP6Thread
   fun:_ZN16SystemDictionary19load_instance_classEP6Symbol6HandleP6Thread
   fun:_ZN16SystemDictionary30resolve_instance_class_or_nullEP6Symbol6HandleS2_P6Thread
   fun:_ZN16SystemDictionary15resolve_or_nullEP6Symbol6HandleS2_P6Thread
   fun:_ZN16SystemDictionary15resolve_or_failEP6Symbol6HandleS2_bP6Thread
   fun:_ZN19constantPoolOopDesc13klass_at_implE18constantPoolHandleiP6Thread
   fun:_ZN12LinkResolver20resolve_invokestaticER8CallInfo18constantPoolHandleiP6Thread
   fun:_ZN18InterpreterRuntime14resolve_invokeEP10JavaThreadN9Bytecodes4CodeE
}
{
   <insert_a_suppression_name_here>
   Memcheck:Leak
   match-leak-kinds: reachable
   fun:malloc
   fun:_ZN2os6mallocEmtPh
   fun:_ZN8CHeapObjILt1792EEnwEmPh
   fun:_ZN13MemoryService25add_code_heap_memory_poolEP8CodeHeap
   fun:_ZN9CodeCache10initializeEv
   fun:_Z12init_globalsv
   fun:_ZN7Threads9create_vmEP14JavaVMInitArgsPb
   fun:JNI_CreateJavaVM
   fun:JavaMain
   fun:start_thread
   fun:clone
}
{
   <insert_a_suppression_name_here>
   Memcheck:Leak
   match-leak-kinds: reachable
   fun:malloc
   fun:_ZN2os6mallocEmtPh
   fun:_ZN8CHeapObjILt1792EEnwEmPh
   fun:_ZN13MemoryService26add_generation_memory_poolEP10GenerationP13MemoryManagerS3_
   fun:_ZN13MemoryService27add_gen_collected_heap_infoEP16GenCollectedHeap
   fun:_ZN13MemoryService17set_universe_heapEP13CollectedHeap
   fun:_Z18universe_post_initv
   fun:_Z12init_globalsv
   fun:_ZN7Threads9create_vmEP14JavaVMInitArgsPb
   fun:JNI_CreateJavaVM
   fun:JavaMain
   fun:start_thread
}
{
   <insert_a_suppression_name_here>
   Memcheck:Leak
   match-leak-kinds: reachable
   fun:malloc
   fun:_ZN2os6mallocEmtPh
   fun:_ZN8CHeapObjILt1792EEnwEmPh
   fun:_ZN13MemoryService27add_gen_collected_heap_infoEP16GenCollectedHeap
   fun:_ZN13MemoryService17set_universe_heapEP13CollectedHeap
   fun:_Z18universe_post_initv
   fun:_Z12init_globalsv
   fun:_ZN7Threads9create_vmEP14JavaVMInitArgsPb
   fun:JNI_CreateJavaVM
   fun:JavaMain
   fun:start_thread
   fun:clone
}
{
   <insert_a_suppression_name_here>
   Memcheck:Leak
   match-leak-kinds: reachable
   fun:malloc
   fun:_ZN2os6mallocEmtPh
   fun:_Z12AllocateHeapmtPhN17AllocFailStrategy13AllocFailEnumE
   fun:_ZN13instanceKlass14get_jmethod_idE19instanceKlassHandle12methodHandle
   fun:_ZL13get_method_idP7JNIEnv_P7_jclassPKcS4_bP6Thread
   fun:jni_GetMethodID
   fun:Java_java_lang_System_initProperties
   obj:*
   obj:*
   obj:*
   fun:_ZN9JavaCalls11call_helperEP9JavaValueP12methodHandleP17JavaCallArgumentsP6Thread
   fun:_ZN9JavaCalls4callEP9JavaValue12methodHandleP17JavaCallArgumentsP6Thread
}
{
   <insert_a_suppression_name_here>
   Memcheck:Leak
   match-leak-kinds: possible
   fun:malloc
   fun:_ZN2os6mallocEmtPh
   fun:_Z12AllocateHeapmtPhN17AllocFailStrategy13AllocFailEnumE
   fun:_ZN11ClassLoader11add_packageEPKciP6Thread
   fun:_ZN11ClassLoader14load_classfileEP6SymbolP6Thread
   fun:_ZN16SystemDictionary19load_instance_classEP6Symbol6HandleP6Thread
   fun:_ZN16SystemDictionary30resolve_instance_class_or_nullEP6Symbol6HandleS2_P6Thread
   fun:_ZN16SystemDictionary15resolve_or_nullEP6Symbol6HandleS2_P6Thread
   fun:_ZN16SystemDictionary21resolve_super_or_failEP6SymbolS1_6HandleS2_bP6Thread
   fun:_ZN15ClassFileParser14parseClassFileEP6Symbol6HandleS2_11KlassHandleP13GrowableArrayIS2_ER13TempNewSymbolbP6Thread
   fun:_ZN11ClassLoader14load_classfileEP6SymbolP6Thread
   fun:_ZN16SystemDictionary19load_instance_classEP6Symbol6HandleP6Thread
}
{
   <insert_a_suppression_name_here>
   Memcheck:Leak
   match-leak-kinds: reachable
   fun:malloc
   fun:_ZN2os6mallocEmtPh
   fun:_ZN8CHeapObjILt512EEnwEmPh
   fun:_ZN2os13create_threadEP6ThreadNS_10ThreadTypeEm
   fun:_ZN8WorkGang18initialize_workersEv
   fun:_ZN16GenCollectedHeapC1EP18GenCollectorPolicy
   fun:_ZN8Universe15initialize_heapEv
   fun:_Z13universe_initv
   fun:_Z12init_globalsv
   fun:_ZN7Threads9create_vmEP14JavaVMInitArgsPb
   fun:JNI_CreateJavaVM
   fun:JavaMain
}
{
   <insert_a_suppression_name_here>
   Memcheck:Leak
   match-leak-kinds: reachable
   fun:malloc
   fun:_ZN2os6mallocEmtPh
   fun:_ZN8CHeapObjILt512EEnwEmPh
   fun:_ZN2os13create_threadEP6ThreadNS_10ThreadTypeEm
   fun:_ZN25ConcurrentMarkSweepThread5startEP12CMSCollector
   fun:_ZN12CMSCollectorC1EP29ConcurrentMarkSweepGenerationS1_P11CardTableRSP25ConcurrentMarkSweepPolicy
   fun:_ZN16GenCollectedHeap20create_cms_collectorEv
   fun:_ZN16GenCollectedHeap10initializeEv
   fun:_ZN8Universe15initialize_heapEv
   fun:_Z13universe_initv
   fun:_Z12init_globalsv
   fun:_ZN7Threads9create_vmEP14JavaVMInitArgsPb
}
{
   <insert_a_suppression_name_here>
   Memcheck:Leak
   match-leak-kinds: reachable
   fun:malloc
   fun:_ZN2os6mallocEmtPh
   fun:_ZN8CHeapObjILt512EEnwEmPh
   fun:_ZN2os13create_threadEP6ThreadNS_10ThreadTypeEm
   fun:_ZN7Threads9create_vmEP14JavaVMInitArgsPb
   fun:JNI_CreateJavaVM
   fun:JavaMain
   fun:start_thread
   fun:clone
}
{
   <insert_a_suppression_name_here>
   Memcheck:Leak
   match-leak-kinds: reachable
   fun:malloc
   fun:_ZN2os6mallocEmtPh
   fun:_ZN8CHeapObjILt512EEnwEmPh
   fun:_ZN2os13create_threadEP6ThreadNS_10ThreadTypeEm
   fun:_ZN10JavaThreadC2EPFvPS_P6ThreadEm
   fun:_ZN21SurrogateLockerThreadC1Ev
   fun:_ZN21SurrogateLockerThread4makeEP6Thread
   fun:_ZN25ConcurrentMarkSweepThread25makeSurrogateLockerThreadEP6Thread
   fun:_ZN7Threads9create_vmEP14JavaVMInitArgsPb
   fun:JNI_CreateJavaVM
   fun:JavaMain
   fun:start_thread
}
{
   <insert_a_suppression_name_here>
   Memcheck:Leak
   match-leak-kinds: reachable
   fun:malloc
   fun:_ZN2os6mallocEmtPh
   fun:_ZN8CHeapObjILt512EEnwEmPh
   fun:_ZN2os13create_threadEP6ThreadNS_10ThreadTypeEm
   fun:_ZN10JavaThreadC1EPFvPS_P6ThreadEm
   fun:_ZN2os11signal_initEv
   fun:_ZN7Threads9create_vmEP14JavaVMInitArgsPb
   fun:JNI_CreateJavaVM
   fun:JavaMain
   fun:start_thread
   fun:clone
}
{
   <insert_a_suppression_name_here>
   Memcheck:Leak
   match-leak-kinds: reachable
   fun:malloc
   fun:_ZN2os6mallocEmtPh
   fun:_ZN8CHeapObjILt512EEnwEmPh
   fun:_ZN2os13create_threadEP6ThreadNS_10ThreadTypeEm
   fun:_ZN10JavaThreadC2EPFvPS_P6ThreadEm
   fun:_ZN13ServiceThread10initializeEv
   fun:_ZN10Management10initializeEP6Thread
   fun:_ZN7Threads9create_vmEP14JavaVMInitArgsPb
   fun:JNI_CreateJavaVM
   fun:JavaMain
   fun:start_thread
   fun:clone
}
{
   <insert_a_suppression_name_here>
   Memcheck:Leak
   match-leak-kinds: reachable
   fun:malloc
   fun:_ZN2os6mallocEmtPh
   fun:_ZN8CHeapObjILt512EEnwEmPh
   fun:_ZN2os13create_threadEP6ThreadNS_10ThreadTypeEm
   fun:_ZN10JavaThreadC1EPFvPS_P6ThreadEm
   fun:JVM_StartThread
   obj:*
   obj:*
   obj:*
   obj:*
   obj:*
   obj:*
}
{
   <insert_a_suppression_name_here>
   Memcheck:Leak
   match-leak-kinds: reachable
   fun:malloc
   fun:_ZN2os6mallocEmtPh
   fun:_ZN8CHeapObjILt512EEnwEmPh
   fun:_ZN2os13create_threadEP6ThreadNS_10ThreadTypeEm
   fun:_ZN10JavaThreadC1EPFvPS_P6ThreadEm
   fun:JVM_StartThread
   obj:*
   obj:*
   obj:*
   obj:*
   obj:*
   fun:_ZN9JavaCalls11call_helperEP9JavaValueP12methodHandleP17JavaCallArgumentsP6Thread
}
{
   <insert_a_suppression_name_here>
   Memcheck:Leak
   match-leak-kinds: reachable
   fun:malloc
   fun:_ZN2os6mallocEmtPh
   fun:_ZN8CHeapObjILt512EEnwEmPh
   fun:_ZN2os22create_attached_threadEP10JavaThread
   fun:attach_current_thread
   fun:jni_DestroyJavaVM
   fun:JavaMain
   fun:start_thread
   fun:clone
}
{
   <insert_a_suppression_name_here>
   Memcheck:Leak
   match-leak-kinds: indirect
   fun:malloc
   fun:_ZN2os6mallocEmtPh
   fun:_ZN8CHeapObjILt512EEnwEmPh
   fun:_ZN2os13create_threadEP6ThreadNS_10ThreadTypeEm
   fun:_ZN13WatcherThread5startEv
   fun:_ZN7Threads9create_vmEP14JavaVMInitArgsPb
   fun:JNI_CreateJavaVM
   fun:JavaMain
   fun:start_thread
   fun:clone
}
{
   <insert_a_suppression_name_here>
   Memcheck:Leak
   match-leak-kinds: reachable
   fun:malloc
   fun:strdup
   fun:_ZN11ClassLoader23create_class_path_entryEPcPK4statbP6Thread
   fun:_ZN11ClassLoader27setup_bootstrap_search_pathEv
   fun:_ZN11ClassLoader10initializeEv
   fun:_Z12init_globalsv
   fun:_ZN7Threads9create_vmEP14JavaVMInitArgsPb
   fun:JNI_CreateJavaVM
   fun:JavaMain
   fun:start_thread
   fun:clone
}
{
   <insert_a_suppression_name_here>
   Memcheck:Leak
   match-leak-kinds: reachable
   fun:malloc
   fun:_ZN2os6mallocEmtPh
   fun:_ZN8CHeapObjILt1792EEnwEmPh
   fun:JVM_RawMonitorCreate
   fun:ZIP_Put_In_Cache0
   fun:ZIP_Open
   fun:_ZN11ClassLoader23create_class_path_entryEPcPK4statbP6Thread
   fun:_ZN18LazyClassPathEntry13resolve_entryEP6Thread
   fun:_ZN18LazyClassPathEntry11open_streamEPKcP6Thread
   fun:_ZN11ClassLoader14load_classfileEP6SymbolP6Thread
   fun:_ZN16SystemDictionary19load_instance_classEP6Symbol6HandleP6Thread
   fun:_ZN16SystemDictionary30resolve_instance_class_or_nullEP6Symbol6HandleS2_P6Thread
}
{
   <insert_a_suppression_name_here>
   Memcheck:Leak
   match-leak-kinds: reachable
   fun:malloc
   fun:_ZN2os6mallocEmtPh
   fun:_ZN8CHeapObjILt1792EEnwEmPh
   fun:_ZN8OSThread13pd_initializeEv
   fun:_ZN8OSThreadC1EPFiPvES0_
   fun:_ZN2os13create_threadEP6ThreadNS_10ThreadTypeEm
   fun:_ZN14CompilerThreadC1EP12CompileQueueP16CompilerCounters
   fun:_ZN13CompileBroker20make_compiler_threadEPKcP12CompileQueueP16CompilerCountersP6Thread
   fun:_ZN13CompileBroker21init_compiler_threadsEii
   fun:_ZN13CompileBroker16compilation_initEv
   fun:_ZN7Threads9create_vmEP14JavaVMInitArgsPb
   fun:JNI_CreateJavaVM
}
{
   <insert_a_suppression_name_here>
   Memcheck:Leak
   match-leak-kinds: reachable
   fun:malloc
   fun:_ZN2os6mallocEmtPh
   fun:_ZN8CHeapObjILt1792EEnwEmPh
   fun:JVM_RawMonitorCreate
   fun:ZIP_Put_In_Cache0
   fun:Java_java_util_zip_ZipFile_open
   obj:*
   obj:*
   obj:*
   obj:*
   obj:*
   obj:*
}
{
   <insert_a_suppression_name_here>
   Memcheck:Leak
   match-leak-kinds: reachable
   fun:malloc
   fun:_ZN2os6mallocEmtPh
   fun:_ZN8CHeapObjILt1792EEnwEmPh
   fun:_ZN13CompileBroker19create_compile_taskEP12CompileQueuei12methodHandleiiS2_iPKcb
   fun:_ZN13CompileBroker19compile_method_baseE12methodHandleiiS0_iPKcP6Thread
   fun:_ZN13CompileBroker14compile_methodE12methodHandleiiS0_iPKcP6Thread
   fun:_ZN16SimpleCompPolicy23method_invocation_eventE12methodHandleP10JavaThread
   fun:_ZN19NonTieredCompPolicy5eventE12methodHandleS0_ii9CompLevelP7nmethodP10JavaThread
   fun:_ZN18InterpreterRuntime32frequency_counter_overflow_innerEP10JavaThreadPh
   fun:_ZN18InterpreterRuntime26frequency_counter_overflowEP10JavaThreadPh
   obj:*
   obj:*
}
{
   <insert_a_suppression_name_here>
   Memcheck:Leak
   match-leak-kinds: reachable
   fun:malloc
   fun:_ZN2os6mallocEmtPh
   fun:_ZN8CHeapObjILt256EEnwEmPh
   fun:_ZN13instanceKlass21add_dependent_nmethodEP7nmethod
   fun:_ZN7nmethod11new_nmethodE12methodHandleiiP11CodeOffsetsiP24DebugInformationRecorderP12DependenciesP10CodeBufferiP9OopMapSetP21ExceptionHandlerTableP22ImplicitExceptionTableP16AbstractCompileri
   fun:_ZN5ciEnv15register_methodEP8ciMethodiP11CodeOffsetsiP10CodeBufferiP9OopMapSetP21ExceptionHandlerTableP22ImplicitExceptionTableP16AbstractCompileribb
   fun:_ZN7CompileC1EP5ciEnvP10C2CompilerP8ciMethodibb
   fun:_ZN10C2Compiler14compile_methodEP5ciEnvP8ciMethodi
   fun:_ZN13CompileBroker25invoke_compiler_on_methodEP11CompileTask
   fun:_ZN13CompileBroker20compiler_thread_loopEv
   fun:_ZN10JavaThread17thread_main_innerEv
   fun:_ZN10JavaThread3runEv
}
{
   <insert_a_suppression_name_here>
   Memcheck:Leak
   match-leak-kinds: possible
   fun:malloc
   fun:_ZN2os6mallocEmtPh
   fun:_ZN8CHeapObjILt1792EEnwEmPh
   fun:_ZN6ThreadC2Ev
   fun:_ZN10JavaThreadC1EPFvPS_P6ThreadEm
   fun:JVM_StartThread
   obj:*
   obj:*
   obj:*
   obj:*
   fun:_ZN9JavaCalls11call_helperEP9JavaValueP12methodHandleP17JavaCallArgumentsP6Thread
   fun:_ZN9JavaCalls4callEP9JavaValue12methodHandleP17JavaCallArgumentsP6Thread
}
{
   <insert_a_suppression_name_here>
   Memcheck:Leak
   match-leak-kinds: possible
   fun:malloc
   fun:_ZN2os6mallocEmtPh
   fun:_ZN8CHeapObjILt1792EEnwEmPh
   fun:_ZN6ThreadC2Ev
   fun:_ZN14CompilerThreadC1EP12CompileQueueP16CompilerCounters
   fun:_ZN13CompileBroker20make_compiler_threadEPKcP12CompileQueueP16CompilerCountersP6Thread
   fun:_ZN13CompileBroker21init_compiler_threadsEii
   fun:_ZN13CompileBroker16compilation_initEv
   fun:_ZN7Threads9create_vmEP14JavaVMInitArgsPb
   fun:JNI_CreateJavaVM
   fun:JavaMain
   fun:start_thread
}
{
   <insert_a_suppression_name_here>
   Memcheck:Leak
   match-leak-kinds: reachable
   fun:malloc
   fun:_ZN2os6mallocEmtPh
   fun:_Z12AllocateHeapmtPhN17AllocFailStrategy13AllocFailEnumE
   fun:_ZN11ClassLoader11add_packageEPKciP6Thread
   fun:_ZN11ClassLoader14load_classfileEP6SymbolP6Thread
   fun:_ZN16SystemDictionary19load_instance_classEP6Symbol6HandleP6Thread
   fun:_ZN16SystemDictionary30resolve_instance_class_or_nullEP6Symbol6HandleS2_P6Thread
   fun:_ZN16SystemDictionary15resolve_or_nullEP6Symbol6HandleS2_P6Thread
   fun:_ZN16SystemDictionary21resolve_super_or_failEP6SymbolS1_6HandleS2_bP6Thread
   fun:_ZN15ClassFileParser16parse_interfacesE18constantPoolHandlei6HandleS1_P6SymbolP6Thread
   fun:_ZN15ClassFileParser14parseClassFileEP6Symbol6HandleS2_11KlassHandleP13GrowableArrayIS2_ER13TempNewSymbolbP6Thread
   fun:_ZN11ClassLoader14load_classfileEP6SymbolP6Thread
}
{
   <insert_a_suppression_name_here>
   Memcheck:Leak
   match-leak-kinds: reachable
   fun:malloc
   fun:_ZN2os6mallocEmtPh
   fun:_ZN11ClassLoader25create_package_info_tableEv
   fun:_Z13universe_initv
   fun:_Z12init_globalsv
   fun:_ZN7Threads9create_vmEP14JavaVMInitArgsPb
   fun:JNI_CreateJavaVM
   fun:JavaMain
   fun:start_thread
   fun:clone
}
{
   <insert_a_suppression_name_here>
   Memcheck:Leak
   match-leak-kinds: reachable
   fun:malloc
   fun:_ZN2os6mallocEmtPh
   fun:_ZN8CodeBlob12set_oop_mapsEP9OopMapSet
   fun:_ZN8CodeBlobC2EPKcP10CodeBufferiiiiP9OopMapSet
   fun:_ZN11RuntimeStub16new_runtime_stubEPKcP10CodeBufferiiP9OopMapSetb
   fun:_ZN13SharedRuntime21generate_resolve_blobEPhPKc
   fun:_ZN13SharedRuntime14generate_stubsEv
   fun:_Z12init_globalsv
   fun:_ZN7Threads9create_vmEP14JavaVMInitArgsPb
   fun:JNI_CreateJavaVM
   fun:JavaMain
   fun:start_thread
}
{
   <insert_a_suppression_name_here>
   Memcheck:Leak
   match-leak-kinds: reachable
   fun:malloc
   fun:_ZN2os6mallocEmtPh
   fun:_ZN8CodeBlob12set_oop_mapsEP9OopMapSet
   fun:_ZN8CodeBlobC2EPKcP10CodeBufferiiiiP9OopMapSet
   fun:_ZN13SafepointBlob6createEP10CodeBufferP9OopMapSeti
   fun:_ZN13SharedRuntime21generate_handler_blobEPhi
   fun:_ZN13SharedRuntime14generate_stubsEv
   fun:_Z12init_globalsv
   fun:_ZN7Threads9create_vmEP14JavaVMInitArgsPb
   fun:JNI_CreateJavaVM
   fun:JavaMain
   fun:start_thread
}
{
   <insert_a_suppression_name_here>
   Memcheck:Leak
   match-leak-kinds: possible
   fun:malloc
   fun:_ZN2os6mallocEmtPh
   fun:_Z12AllocateHeapmtPhN17AllocFailStrategy13AllocFailEnumE
   fun:_ZN14BasicHashtableILt256EE9new_entryEj
   fun:_ZN11ClassLoader11add_packageEPKciP6Thread
   fun:_ZN11ClassLoader14load_classfileEP6SymbolP6Thread
   fun:_ZN16SystemDictionary19load_instance_classEP6Symbol6HandleP6Thread
   fun:_ZN16SystemDictionary30resolve_instance_class_or_nullEP6Symbol6HandleS2_P6Thread
   fun:_ZN16SystemDictionary15resolve_or_nullEP6Symbol6HandleS2_P6Thread
   fun:_ZN16SystemDictionary28initialize_preloaded_classesEP6Thread
   fun:_ZN8Universe7genesisEP6Thread
   fun:_Z14universe2_initv
}
{
   <insert_a_suppression_name_here>
   Memcheck:Leak
   match-leak-kinds: possible
   fun:malloc
   fun:_ZN2os6mallocEmtPh
   fun:_Z12AllocateHeapmtPhN17AllocFailStrategy13AllocFailEnumE
   fun:_ZN14BasicHashtableILt256EE9new_entryEj
   fun:_ZN11ClassLoader11add_packageEPKciP6Thread
   fun:_ZN11ClassLoader14load_classfileEP6SymbolP6Thread
   fun:_ZN16SystemDictionary19load_instance_classEP6Symbol6HandleP6Thread
   fun:_ZN16SystemDictionary30resolve_instance_class_or_nullEP6Symbol6HandleS2_P6Thread
   fun:_ZN16SystemDictionary15resolve_or_nullEP6Symbol6HandleS2_P6Thread
   fun:_ZN16SystemDictionary27initialize_wk_klasses_untilENS_4WKIDERS0_P6Thread
   fun:_ZN16SystemDictionary28initialize_preloaded_classesEP6Thread
   fun:_ZN8Universe7genesisEP6Thread
}
{
   <insert_a_suppression_name_here>
   Memcheck:Leak
   match-leak-kinds: possible
   fun:malloc
   fun:_ZN2os6mallocEmtPh
   fun:_Z12AllocateHeapmtPhN17AllocFailStrategy13AllocFailEnumE
   fun:_ZN14BasicHashtableILt256EE9new_entryEj
   fun:_ZN11ClassLoader11add_packageEPKciP6Thread
   fun:_ZN11ClassLoader14load_classfileEP6SymbolP6Thread
   fun:_ZN16SystemDictionary19load_instance_classEP6Symbol6HandleP6Thread
   fun:_ZN16SystemDictionary30resolve_instance_class_or_nullEP6Symbol6HandleS2_P6Thread
   fun:_ZN16SystemDictionary15resolve_or_nullEP6Symbol6HandleS2_P6Thread
   fun:_ZN16SystemDictionary21resolve_super_or_failEP6SymbolS1_6HandleS2_bP6Thread
   fun:_ZN15ClassFileParser14parseClassFileEP6Symbol6HandleS2_11KlassHandleP13GrowableArrayIS2_ER13TempNewSymbolbP6Thread
   fun:_ZN11ClassLoader14load_classfileEP6SymbolP6Thread
}
{
   <insert_a_suppression_name_here>
   Memcheck:Leak
   match-leak-kinds: reachable
   fun:malloc
   fun:_ZN2os6mallocEmtPh
   fun:_ZN8CHeapObjILt1792EEnwEmPh
   fun:_ZN8Universe15initialize_heapEv
   fun:_Z13universe_initv
   fun:_Z12init_globalsv
   fun:_ZN7Threads9create_vmEP14JavaVMInitArgsPb
   fun:JNI_CreateJavaVM
   fun:JavaMain
   fun:start_thread
   fun:clone
}
{
   <insert_a_suppression_name_here>
   Memcheck:Leak
   match-leak-kinds: reachable
   fun:malloc
   fun:_ZN2os6mallocEmtPh
   fun:_ZN8CHeapObjILt1792EEnwEmPh
   fun:_ZN10JavaThread10initializeEv
   fun:_ZN10JavaThreadC1EPFvPS_P6ThreadEm
   fun:JVM_StartThread
   obj:*
   obj:*
   obj:*
   obj:*
   obj:*
   obj:*
}
{
   <insert_a_suppression_name_here>
   Memcheck:Leak
   match-leak-kinds: reachable
   fun:malloc
   fun:_ZN2os6mallocEmtPh
   fun:_ZN8CHeapObjILt1792EEnwEmPh
   fun:_ZN10JavaThread10initializeEv
   fun:_ZN10JavaThreadC1EPFvPS_P6ThreadEm
   fun:JVM_StartThread
   obj:*
   obj:*
   obj:*
   obj:*
   obj:*
   fun:_ZN9JavaCalls11call_helperEP9JavaValueP12methodHandleP17JavaCallArgumentsP6Thread
}
{
   <insert_a_suppression_name_here>
   Memcheck:Leak
   match-leak-kinds: possible
   fun:malloc
   fun:_ZN2os6mallocEmtPh
   fun:_ZN8CHeapObjILt1792EEnwEmPh
   fun:_ZN10JavaThread10initializeEv
   fun:_ZN10JavaThreadC2EPFvPS_P6ThreadEm
   fun:_ZN21SurrogateLockerThreadC1Ev
   fun:_ZN21SurrogateLockerThread4makeEP6Thread
   fun:_ZN25ConcurrentMarkSweepThread25makeSurrogateLockerThreadEP6Thread
   fun:_ZN7Threads9create_vmEP14JavaVMInitArgsPb
   fun:JNI_CreateJavaVM
   fun:JavaMain
   fun:start_thread
}
{
   <insert_a_suppression_name_here>
   Memcheck:Leak
   match-leak-kinds: possible
   fun:malloc
   fun:_ZN2os6mallocEmtPh
   fun:_ZN8CHeapObjILt1792EEnwEmPh
   fun:_ZN10JavaThread10initializeEv
   fun:_ZN10JavaThreadC1EPFvPS_P6ThreadEm
   fun:_ZN2os11signal_initEv
   fun:_ZN7Threads9create_vmEP14JavaVMInitArgsPb
   fun:JNI_CreateJavaVM
   fun:JavaMain
   fun:start_thread
   fun:clone
}
{
   <insert_a_suppression_name_here>
   Memcheck:Leak
   match-leak-kinds: possible
   fun:malloc
   fun:_ZN2os6mallocEmtPh
   fun:_ZN8CHeapObjILt1792EEnwEmPh
   fun:_ZN10JavaThread10initializeEv
   fun:_ZN10JavaThreadC2EPFvPS_P6ThreadEm
   fun:_ZN13ServiceThread10initializeEv
   fun:_ZN10Management10initializeEP6Thread
   fun:_ZN7Threads9create_vmEP14JavaVMInitArgsPb
   fun:JNI_CreateJavaVM
   fun:JavaMain
   fun:start_thread
   fun:clone
}
{
   <insert_a_suppression_name_here>
   Memcheck:Leak
   match-leak-kinds: possible
   fun:malloc
   fun:_ZN2os6mallocEmtPh
   fun:_ZN8CHeapObjILt1792EEnwEmPh
   fun:_ZN10JavaThread10initializeEv
   fun:_ZN10JavaThreadC1EPFvPS_P6ThreadEm
   fun:JVM_StartThread
   obj:*
   obj:*
   obj:*
   obj:*
   obj:*
   obj:*
}
{
   <insert_a_suppression_name_here>
   Memcheck:Leak
   match-leak-kinds: possible
   fun:malloc
   fun:_ZN2os6mallocEmtPh
   fun:_ZN8CHeapObjILt1792EEnwEmPh
   fun:_ZN10JavaThread10initializeEv
   fun:_ZN10JavaThreadC1Eb
   fun:attach_current_thread
   fun:jni_DestroyJavaVM
   fun:JavaMain
   fun:start_thread
   fun:clone
}
{
   <insert_a_suppression_name_here>
   Memcheck:Leak
   match-leak-kinds: reachable
   fun:malloc
   fun:_ZN2os6mallocEmtPh
   fun:_ZN8CHeapObjILt1024EEnwEmPh
   fun:_GLOBAL__I_codeCache.cpp
   obj:/usr/java/jdk1.7.0_80/jre/lib/amd64/server/libjvm.so
   obj:/usr/java/jdk1.7.0_80/jre/lib/amd64/server/libjvm.so
   obj:*
   fun:call_init
   fun:_dl_init
   fun:dl_open_worker
   fun:_dl_catch_exception
   fun:_dl_open
   fun:dlopen_doit
}
{
   <insert_a_suppression_name_here>
   Memcheck:Leak
   match-leak-kinds: reachable
   fun:malloc
   fun:strdup
   fun:_dl_map_object
   fun:dl_open_worker
   fun:_dl_catch_exception
   fun:_dl_open
   fun:dlopen_doit
   fun:_dl_catch_exception
   fun:_dl_catch_error
   fun:_dlerror_run
   fun:dlopen@@GLIBC_2.2.5
   fun:_ZN2os8dll_loadEPKcPci
}
{
   <insert_a_suppression_name_here>
   Memcheck:Leak
   match-leak-kinds: reachable
   fun:malloc
   fun:_ZN2os6mallocEmtPh
   fun:_Z12AllocateHeapmtPhN17AllocFailStrategy13AllocFailEnumE
   fun:_ZN13instanceKlass14get_jmethod_idE19instanceKlassHandle12methodHandle
   fun:_ZL13get_method_idP7JNIEnv_P7_jclassPKcS4_bP6Thread
   fun:jni_GetStaticMethodID
   fun:JNU_CallStaticMethodByName
   fun:JNU_NewStringPlatform
   fun:Java_java_lang_System_initProperties
   obj:*
   obj:*
   obj:*
}
{
   <insert_a_suppression_name_here>
   Memcheck:Leak
   match-leak-kinds: reachable
   fun:malloc
   fun:_ZN2os6mallocEmtPh
   fun:_Z12AllocateHeapmtPhN17AllocFailStrategy13AllocFailEnumE
   fun:_ZN13instanceKlass14get_jmethod_idE19instanceKlassHandle12methodHandle
   fun:_ZL13get_method_idP7JNIEnv_P7_jclassPKcS4_bP6Thread
   fun:jni_GetMethodID
   fun:JNU_NewObjectByName
   obj:*
   obj:*
   obj:*
   fun:_ZN9JavaCalls11call_helperEP9JavaValueP12methodHandleP17JavaCallArgumentsP6Thread
   fun:_ZN9JavaCalls4callEP9JavaValue12methodHandleP17JavaCallArgumentsP6Thread
}
{
   <insert_a_suppression_name_here>
   Memcheck:Leak
   match-leak-kinds: possible
   fun:calloc
   fun:allocate_dtv
   fun:_dl_allocate_tls
   fun:allocate_stack
   fun:pthread_create@@GLIBC_2.2.5
   fun:ContinueInNewThread0
   fun:ContinueInNewThread
   fun:JLI_Launch
   fun:main
}
{
   <insert_a_suppression_name_here>
   Memcheck:Leak
   match-leak-kinds: possible
   fun:calloc
   fun:allocate_dtv
   fun:_dl_allocate_tls
   fun:allocate_stack
   fun:pthread_create@@GLIBC_2.2.5
   fun:_ZN2os13create_threadEP6ThreadNS_10ThreadTypeEm
   fun:_ZN8WorkGang18initialize_workersEv
   fun:_ZN16GenCollectedHeapC1EP18GenCollectorPolicy
   fun:_ZN8Universe15initialize_heapEv
   fun:_Z13universe_initv
   fun:_Z12init_globalsv
   fun:_ZN7Threads9create_vmEP14JavaVMInitArgsPb
   fun:JNI_CreateJavaVM
   fun:JavaMain
}
{
   <insert_a_suppression_name_here>
   Memcheck:Leak
   match-leak-kinds: possible
   fun:calloc
   fun:allocate_dtv
   fun:_dl_allocate_tls
   fun:allocate_stack
   fun:pthread_create@@GLIBC_2.2.5
   fun:_ZN2os13create_threadEP6ThreadNS_10ThreadTypeEm
   fun:_ZN25ConcurrentMarkSweepThread5startEP12CMSCollector
   fun:_ZN12CMSCollectorC1EP29ConcurrentMarkSweepGenerationS1_P11CardTableRSP25ConcurrentMarkSweepPolicy
   fun:_ZN16GenCollectedHeap20create_cms_collectorEv
   fun:_ZN16GenCollectedHeap10initializeEv
   fun:_ZN8Universe15initialize_heapEv
   fun:_Z13universe_initv
   fun:_Z12init_globalsv
   fun:_ZN7Threads9create_vmEP14JavaVMInitArgsPb
}
{
   <insert_a_suppression_name_here>
   Memcheck:Leak
   match-leak-kinds: possible
   fun:calloc
   fun:allocate_dtv
   fun:_dl_allocate_tls
   fun:allocate_stack
   fun:pthread_create@@GLIBC_2.2.5
   fun:_ZN2os13create_threadEP6ThreadNS_10ThreadTypeEm
   fun:_ZN7Threads9create_vmEP14JavaVMInitArgsPb
   fun:JNI_CreateJavaVM
   fun:JavaMain
   fun:start_thread
   fun:clone
}
{
   <insert_a_suppression_name_here>
   Memcheck:Leak
   match-leak-kinds: possible
   fun:calloc
   fun:allocate_dtv
   fun:_dl_allocate_tls
   fun:allocate_stack
   fun:pthread_create@@GLIBC_2.2.5
   fun:_ZN2os13create_threadEP6ThreadNS_10ThreadTypeEm
   fun:_ZN10JavaThreadC2EPFvPS_P6ThreadEm
   fun:_ZN21SurrogateLockerThreadC1Ev
   fun:_ZN21SurrogateLockerThread4makeEP6Thread
   fun:_ZN25ConcurrentMarkSweepThread25makeSurrogateLockerThreadEP6Thread
   fun:_ZN7Threads9create_vmEP14JavaVMInitArgsPb
   fun:JNI_CreateJavaVM
   fun:JavaMain
   fun:start_thread
}
{
   <insert_a_suppression_name_here>
   Memcheck:Leak
   match-leak-kinds: possible
   fun:calloc
   fun:allocate_dtv
   fun:_dl_allocate_tls
   fun:allocate_stack
   fun:pthread_create@@GLIBC_2.2.5
   fun:_ZN2os13create_threadEP6ThreadNS_10ThreadTypeEm
   fun:_ZN10JavaThreadC1EPFvPS_P6ThreadEm
   fun:_ZN2os11signal_initEv
   fun:_ZN7Threads9create_vmEP14JavaVMInitArgsPb
   fun:JNI_CreateJavaVM
   fun:JavaMain
   fun:start_thread
   fun:clone
}
{
   <insert_a_suppression_name_here>
   Memcheck:Leak
   match-leak-kinds: possible
   fun:calloc
   fun:allocate_dtv
   fun:_dl_allocate_tls
   fun:allocate_stack
   fun:pthread_create@@GLIBC_2.2.5
   fun:_ZN2os13create_threadEP6ThreadNS_10ThreadTypeEm
   fun:_ZN10JavaThreadC2EPFvPS_P6ThreadEm
   fun:_ZN13ServiceThread10initializeEv
   fun:_ZN10Management10initializeEP6Thread
   fun:_ZN7Threads9create_vmEP14JavaVMInitArgsPb
   fun:JNI_CreateJavaVM
   fun:JavaMain
   fun:start_thread
   fun:clone
}
{
   <insert_a_suppression_name_here>
   Memcheck:Leak
   match-leak-kinds: possible
   fun:calloc
   fun:allocate_dtv
   fun:_dl_allocate_tls
   fun:allocate_stack
   fun:pthread_create@@GLIBC_2.2.5
   fun:_ZN2os13create_threadEP6ThreadNS_10ThreadTypeEm
   fun:_ZN10JavaThreadC1EPFvPS_P6ThreadEm
   fun:JVM_StartThread
   obj:*
   obj:*
   obj:*
   obj:*
   obj:*
   obj:*
}
{
   <insert_a_suppression_name_here>
   Memcheck:Leak
   match-leak-kinds: possible
   fun:calloc
   fun:allocate_dtv
   fun:_dl_allocate_tls
   fun:allocate_stack
   fun:pthread_create@@GLIBC_2.2.5
   fun:_ZN2os13create_threadEP6ThreadNS_10ThreadTypeEm
   fun:_ZN10JavaThreadC1EPFvPS_P6ThreadEm
   fun:JVM_StartThread
   obj:*
   obj:*
   obj:*
   obj:*
   obj:*
   fun:_ZN9JavaCalls11call_helperEP9JavaValueP12methodHandleP17JavaCallArgumentsP6Thread
}
{
   <insert_a_suppression_name_here>
   Memcheck:Leak
   match-leak-kinds: reachable
   fun:malloc
   fun:_ZN2os6mallocEmtPh
   fun:_ZN8CodeBlob12set_oop_mapsEP9OopMapSet
   fun:_ZN8CodeBlobC2EPKcP10CodeBufferiiiiP9OopMapSet
   fun:_ZN18DeoptimizationBlob6createEP10CodeBufferP9OopMapSetiiii
   fun:_ZN13SharedRuntime19generate_deopt_blobEv
   fun:_ZN13SharedRuntime14generate_stubsEv
   fun:_Z12init_globalsv
   fun:_ZN7Threads9create_vmEP14JavaVMInitArgsPb
   fun:JNI_CreateJavaVM
   fun:JavaMain
   fun:start_thread
}
{
   <insert_a_suppression_name_here>
   Memcheck:Leak
   match-leak-kinds: reachable
   fun:malloc
   fun:_ZN2os6mallocEmtPh
   fun:_ZN8CHeapObjILt1792EEnwEmPh
   fun:_ZN14JNIHandleBlock14allocate_blockEP6Thread
   fun:_ZN7Threads9create_vmEP14JavaVMInitArgsPb
   fun:JNI_CreateJavaVM
   fun:JavaMain
   fun:start_thread
   fun:clone
}
{
   <insert_a_suppression_name_here>
   Memcheck:Leak
   match-leak-kinds: reachable
   fun:malloc
   fun:_ZN2os6mallocEmtPh
   fun:_ZN8CHeapObjILt1792EEnwEmPh
   fun:_ZN10JNIHandles10initializeEv
   fun:_Z12init_globalsv
   fun:_ZN7Threads9create_vmEP14JavaVMInitArgsPb
   fun:JNI_CreateJavaVM
   fun:JavaMain
   fun:start_thread
   fun:clone
}
{
   <insert_a_suppression_name_here>
   Memcheck:Leak
   match-leak-kinds: reachable
   fun:malloc
   fun:_ZN2os6mallocEmtPh
   fun:_ZN8CHeapObjILt1792EEnwEmPh
   fun:_ZN14JNIHandleBlock14allocate_blockEP6Thread
   fun:_ZN15JavaCallWrapperC1E12methodHandle6HandleP9JavaValueP6Thread
   fun:_ZN9JavaCalls11call_helperEP9JavaValueP12methodHandleP17JavaCallArgumentsP6Thread
   fun:_ZN9JavaCalls4callEP9JavaValue12methodHandleP17JavaCallArgumentsP6Thread
   fun:JVM_DoPrivileged
   obj:*
   obj:*
   obj:*
   obj:*
}
{
   <insert_a_suppression_name_here>
   Memcheck:Leak
   match-leak-kinds: reachable
   fun:malloc
   fun:_ZN2os6mallocEmtPh
   fun:_ZN8CHeapObjILt1792EEnwEmPh
   fun:_ZN14JNIHandleBlock15allocate_handleEP7oopDesc
   fun:_ZN10JNIHandles11make_globalE6Handle
   fun:_ZN8ciObjectC2E6Handle
   fun:_ZN6ciTypeC2E11KlassHandle
   fun:_ZN7ciKlassC2E11KlassHandle
   fun:_ZN15ciInstanceKlassC1E11KlassHandle
   fun:_ZN15ciObjectFactory17create_new_objectEP7oopDesc
   fun:_ZN15ciObjectFactory3getEP7oopDesc
   fun:_ZN15ciObjectFactory19init_shared_objectsEv
}
{
   <insert_a_suppression_name_here>
   Memcheck:Leak
   match-leak-kinds: reachable
   fun:malloc
   fun:_ZN2os6mallocEmtPh
   fun:_ZN8CHeapObjILt1792EEnwEmPh
   fun:_ZN14JNIHandleBlock14allocate_blockEP6Thread
   fun:_ZN15JavaCallWrapperC1E12methodHandle6HandleP9JavaValueP6Thread
   fun:_ZN9JavaCalls11call_helperEP9JavaValueP12methodHandleP17JavaCallArgumentsP6Thread
   fun:_ZN9JavaCalls4callEP9JavaValue12methodHandleP17JavaCallArgumentsP6Thread
   fun:_ZN13instanceKlass22call_class_initializerEP6Thread
   fun:_ZN13instanceKlass15initialize_implE19instanceKlassHandleP6Thread
   fun:_ZN13instanceKlass10initializeEP6Thread
   fun:_Z28find_class_from_class_loaderP7JNIEnv_P6Symbolh6HandleS3_hP6Thread
   fun:JVM_FindClassFromCaller
}
{
   <insert_a_suppression_name_here>
   Memcheck:Leak
   match-leak-kinds: reachable
   fun:malloc
   fun:_ZN2os6mallocEmtPh
   fun:_Z12AllocateHeapmtPhN17AllocFailStrategy13AllocFailEnumE
   fun:_ZN13instanceKlass14get_jmethod_idE19instanceKlassHandle12methodHandle
   fun:_ZL13get_method_idP7JNIEnv_P7_jclassPKcS4_bP6Thread
   fun:jni_GetMethodID
   fun:Java_java_net_Inet6Address_init
   obj:*
   obj:*
   obj:*
   fun:_ZN9JavaCalls11call_helperEP9JavaValueP12methodHandleP17JavaCallArgumentsP6Thread
   fun:_ZN9JavaCalls4callEP9JavaValue12methodHandleP17JavaCallArgumentsP6Thread
}
{
   <insert_a_suppression_name_here>
   Memcheck:Leak
   match-leak-kinds: possible
   fun:malloc
   fun:_ZN2os6mallocEmtPh
   fun:_ZN8CHeapObjILt1792EEnwEmPh
   fun:_ZN14JNIHandleBlock14allocate_blockEP6Thread
   fun:_ZN25ConcurrentMarkSweepThread3runEv
   fun:_ZL10java_startP6Thread
   fun:start_thread
   fun:clone
}
{
   <insert_a_suppression_name_here>
   Memcheck:Leak
   match-leak-kinds: possible
   fun:malloc
   fun:_ZN2os6mallocEmtPh
   fun:_ZN8CHeapObjILt1792EEnwEmPh
   fun:_ZN14JNIHandleBlock14allocate_blockEP6Thread
   fun:_ZN8VMThread3runEv
   fun:_ZL10java_startP6Thread
   fun:start_thread
   fun:clone
}
{
   <insert_a_suppression_name_here>
   Memcheck:Leak
   match-leak-kinds: possible
   fun:malloc
   fun:_ZN2os6mallocEmtPh
   fun:_ZN8CHeapObjILt1792EEnwEmPh
   fun:_ZN14JNIHandleBlock14allocate_blockEP6Thread
   fun:_ZN15JavaCallWrapperC1E12methodHandle6HandleP9JavaValueP6Thread
   fun:_ZN9JavaCalls11call_helperEP9JavaValueP12methodHandleP17JavaCallArgumentsP6Thread
   fun:_ZN9JavaCalls4callEP9JavaValue12methodHandleP17JavaCallArgumentsP6Thread
   fun:_ZN13instanceKlass22call_class_initializerEP6Thread
   fun:_ZN13instanceKlass15initialize_implE19instanceKlassHandleP6Thread
   fun:_ZN13instanceKlass10initializeEP6Thread
   fun:_ZN18InterpreterRuntime4_newEP10JavaThreadP19constantPoolOopDesci
   obj:*
}
{
   <insert_a_suppression_name_here>
   Memcheck:Leak
   match-leak-kinds: possible
   fun:malloc
   fun:_ZN2os6mallocEmtPh
   fun:_ZN8CHeapObjILt1792EEnwEmPh
   fun:_ZN14JNIHandleBlock15allocate_handleEP7oopDesc
   fun:_ZN8ciObjectC2E6Handle
   fun:_ZN15ciObjectFactory17create_new_objectEP7oopDesc
   fun:_ZN15ciObjectFactory3getEP7oopDesc
   fun:_ZN7ciField15initialize_fromEP15fieldDescriptor
   fun:_ZN7ciFieldC1EP15ciInstanceKlassi
   fun:_ZN5ciEnv23get_field_by_index_implEP15ciInstanceKlassi
   fun:_ZN5ciEnv18get_field_by_indexEP15ciInstanceKlassi
   fun:_ZN16ciBytecodeStream9get_fieldERb
}
{
   <insert_a_suppression_name_here>
   Memcheck:Leak
   match-leak-kinds: possible
   fun:malloc
   fun:_ZN2os6mallocEmtPh
   fun:_ZN8CHeapObjILt1792EEnwEmPh
   fun:_ZN14JNIHandleBlock14allocate_blockEP6Thread
   fun:_ZN15JavaCallWrapperC1E12methodHandle6HandleP9JavaValueP6Thread
   fun:_ZN9JavaCalls11call_helperEP9JavaValueP12methodHandleP17JavaCallArgumentsP6Thread
   fun:_ZN9JavaCalls4callEP9JavaValue12methodHandleP17JavaCallArgumentsP6Thread
   fun:JVM_DoPrivileged
   obj:*
   obj:*
   obj:*
   fun:_ZN9JavaCalls11call_helperEP9JavaValueP12methodHandleP17JavaCallArgumentsP6Thread
}
{
   <insert_a_suppression_name_here>
   Memcheck:Leak
   match-leak-kinds: indirect
   fun:malloc
   fun:_ZN2os6mallocEmtPh
   fun:_ZN8CHeapObjILt1792EEnwEmPh
   fun:_ZN14JNIHandleBlock14allocate_blockEP6Thread
   fun:_ZN13WatcherThread3runEv
   fun:_ZL10java_startP6Thread
   fun:start_thread
   fun:clone
}
{
   <insert_a_suppression_name_here>
   Memcheck:Leak
   match-leak-kinds: reachable
   fun:malloc
   fun:_dl_new_object
   fun:_dl_map_object_from_fd
   fun:_dl_map_object
   fun:openaux
   fun:_dl_catch_exception
   fun:_dl_map_object_deps
   fun:dl_open_worker
   fun:_dl_catch_exception
   fun:_dl_open
   fun:dlopen_doit
   fun:_dl_catch_exception
}
{
   <insert_a_suppression_name_here>
   Memcheck:Leak
   match-leak-kinds: definite
   fun:malloc
   fun:_ZN2os6mallocEmtPh
   fun:_ZN2os16format_boot_pathEPKcS1_icc
   fun:_ZN2os13set_boot_pathEcc
   fun:_ZN2os29init_system_properties_valuesEv
   fun:_ZN7Threads9create_vmEP14JavaVMInitArgsPb
   fun:JNI_CreateJavaVM
   fun:JavaMain
   fun:start_thread
   fun:clone
}
{
   <insert_a_suppression_name_here>
   Memcheck:Leak
   match-leak-kinds: definite
   fun:malloc
   fun:_ZN2os6mallocEmtPh
   fun:_ZN2os6strdupEPKct
   fun:_ZN11ClassLoader27setup_bootstrap_search_pathEv
   fun:_ZN11ClassLoader10initializeEv
   fun:_Z12init_globalsv
   fun:_ZN7Threads9create_vmEP14JavaVMInitArgsPb
   fun:JNI_CreateJavaVM
   fun:JavaMain
   fun:start_thread
   fun:clone
}
{
   <insert_a_suppression_name_here>
   Memcheck:Leak
   match-leak-kinds: reachable
   fun:malloc
   fun:_ZN2os6mallocEmtPh
   fun:_Z12AllocateHeapmtPhN17AllocFailStrategy13AllocFailEnumE
   fun:_ZN11ClassLoader16setup_meta_indexEv
   fun:_ZN11ClassLoader10initializeEv
   fun:_Z12init_globalsv
   fun:_ZN7Threads9create_vmEP14JavaVMInitArgsPb
   fun:JNI_CreateJavaVM
   fun:JavaMain
   fun:start_thread
   fun:clone
}
{
   <insert_a_suppression_name_here>
   Memcheck:Leak
   match-leak-kinds: reachable
   fun:malloc
   fun:_ZN2os6mallocEmtPh
   fun:_ZN8CHeapObjILt1280EEnwEmPh
   fun:_ZN14GenerationSpec4initE13ReservedSpaceiP9GenRemSet
   fun:_ZN16GenCollectedHeap10initializeEv
   fun:_ZN8Universe15initialize_heapEv
   fun:_Z13universe_initv
   fun:_Z12init_globalsv
   fun:_ZN7Threads9create_vmEP14JavaVMInitArgsPb
   fun:JNI_CreateJavaVM
   fun:JavaMain
   fun:start_thread
}
{
   <insert_a_suppression_name_here>
   Memcheck:Leak
   match-leak-kinds: reachable
   fun:malloc
   fun:_ZN2os6mallocEmtPh
   fun:_Z12AllocateHeapmtPhN17AllocFailStrategy13AllocFailEnumE
   fun:_ZN13instanceKlass14get_jmethod_idE19instanceKlassHandle12methodHandle
   fun:_ZL13get_method_idP7JNIEnv_P7_jclassPKcS4_bP6Thread
   fun:jni_GetStaticMethodID
   fun:JNU_CallStaticMethodByName
   fun:initializeEncoding
   fun:JNU_NewStringPlatform
   fun:Java_java_lang_System_initProperties
   obj:*
   obj:*
}
{
   <insert_a_suppression_name_here>
   Memcheck:Leak
   match-leak-kinds: reachable
   fun:calloc
   fun:initLoopbackRoutes
   fun:initLocalAddrTable
   fun:JNI_OnLoad
   fun:Java_java_lang_ClassLoader_00024NativeLibrary_load
   obj:*
   obj:*
   obj:*
   obj:*
   obj:*
   obj:*
   obj:*
}
{
   <insert_a_suppression_name_here>
   Memcheck:Leak
   match-leak-kinds: possible
   fun:malloc
   fun:_ZN2os6mallocEmtPh
   fun:_ZN8CHeapObjILt1792EEnwEmPh
   fun:_ZN6Parker8AllocateEP10JavaThread
   fun:_ZN10JavaThread10initializeEv
   fun:_ZN10JavaThreadC1EPFvPS_P6ThreadEm
   fun:JVM_StartThread
   obj:*
   obj:*
   obj:*
   obj:*
   fun:_ZN9JavaCalls11call_helperEP9JavaValueP12methodHandleP17JavaCallArgumentsP6Thread
}
{
   <insert_a_suppression_name_here>
   Memcheck:Leak
   match-leak-kinds: possible
   fun:malloc
   fun:_ZN2os6mallocEmtPh
   fun:_ZN8CHeapObjILt1792EEnwEmPh
   fun:_ZN6Parker8AllocateEP10JavaThread
   fun:_ZN10JavaThread10initializeEv
   fun:_ZN14CompilerThreadC1EP12CompileQueueP16CompilerCounters
   fun:_ZN13CompileBroker20make_compiler_threadEPKcP12CompileQueueP16CompilerCountersP6Thread
   fun:_ZN13CompileBroker21init_compiler_threadsEii
   fun:_ZN13CompileBroker16compilation_initEv
   fun:_ZN7Threads9create_vmEP14JavaVMInitArgsPb
   fun:JNI_CreateJavaVM
   fun:JavaMain
}
{
   <insert_a_suppression_name_here>
   Memcheck:Leak
   match-leak-kinds: possible
   fun:malloc
   fun:_ZN2os6mallocEmtPh
   fun:_ZN8CHeapObjILt256EEnwEmPh
   fun:_ZN10Dictionary21add_protection_domainEij19instanceKlassHandle6HandleS1_P6Thread
   fun:_ZN16SystemDictionary26validate_protection_domainE19instanceKlassHandle6HandleS1_P6Thread
   fun:_ZN16SystemDictionary30resolve_instance_class_or_nullEP6Symbol6HandleS2_P6Thread
   fun:_ZN16SystemDictionary15resolve_or_nullEP6Symbol6HandleS2_P6Thread
   fun:_ZN16SystemDictionary15resolve_or_failEP6Symbol6HandleS2_bP6Thread
   fun:_Z28find_class_from_class_loaderP7JNIEnv_P6Symbolh6HandleS3_hP6Thread
   fun:JVM_FindClassFromClass
   fun:load_class_global
   fun:object_fullinfo_to_classclass
}
{
   <insert_a_suppression_name_here>
   Memcheck:Leak
   match-leak-kinds: reachable
   fun:calloc
   fun:_dl_check_map_versions
   fun:dl_open_worker
   fun:_dl_catch_exception
   fun:_dl_open
   fun:dlopen_doit
   fun:_dl_catch_exception
   fun:_dl_catch_error
   fun:_dlerror_run
   fun:dlopen@@GLIBC_2.2.5
   fun:_ZN2os5Linux10clock_initEv
   fun:_ZN2os4initEv
}
{
   <insert_a_suppression_name_here>
   Memcheck:Leak
   match-leak-kinds: reachable
   fun:malloc
   fun:_dl_new_object
   fun:_dl_map_object_from_fd
   fun:_dl_map_object
   fun:dl_open_worker
   fun:_dl_catch_exception
   fun:_dl_open
   fun:dlopen_doit
   fun:_dl_catch_exception
   fun:_dl_catch_error
   fun:_dlerror_run
   fun:dlopen@@GLIBC_2.2.5
}
{
   <insert_a_suppression_name_here>
   Memcheck:Leak
   match-leak-kinds: reachable
   fun:calloc
   fun:ZIP_Put_In_Cache0
   fun:Java_java_util_zip_ZipFile_open
   obj:*
   obj:*
   obj:*
   obj:*
   obj:*
   obj:*
   obj:*
   obj:*
   obj:*
}
{
   <insert_a_suppression_name_here>
   Memcheck:Leak
   match-leak-kinds: possible
   fun:malloc
   fun:_ZN2os6mallocEmtPh
   fun:_ZN8CHeapObjILt1536EEnwEmPh
   fun:_ZN13CompileBroker21init_compiler_threadsEii
   fun:_ZN13CompileBroker16compilation_initEv
   fun:_ZN7Threads9create_vmEP14JavaVMInitArgsPb
   fun:JNI_CreateJavaVM
   fun:JavaMain
   fun:start_thread
   fun:clone
}
{
   <insert_a_suppression_name_here>
   Memcheck:Leak
   match-leak-kinds: possible
   fun:malloc
   fun:_ZN2os6mallocEmtPh
   fun:_Z12AllocateHeapmtPhN17AllocFailStrategy13AllocFailEnumE
   fun:_ZN11ClassLoader11add_packageEPKciP6Thread
   fun:_ZN11ClassLoader14load_classfileEP6SymbolP6Thread
   fun:_ZN16SystemDictionary19load_instance_classEP6Symbol6HandleP6Thread
   fun:_ZN16SystemDictionary30resolve_instance_class_or_nullEP6Symbol6HandleS2_P6Thread
   fun:_ZN16SystemDictionary15resolve_or_nullEP6Symbol6HandleS2_P6Thread
   fun:_ZN16SystemDictionary21resolve_super_or_failEP6SymbolS1_6HandleS2_bP6Thread
   fun:_ZN15ClassFileParser16parse_interfacesE18constantPoolHandlei6HandleS1_P6SymbolP6Thread
   fun:_ZN15ClassFileParser14parseClassFileEP6Symbol6HandleS2_11KlassHandleP13GrowableArrayIS2_ER13TempNewSymbolbP6Thread
   fun:_ZN11ClassLoader14load_classfileEP6SymbolP6Thread
}
{
   <insert_a_suppression_name_here>
   Memcheck:Leak
   match-leak-kinds: reachable
   fun:malloc
   fun:_ZN2os6mallocEmtPh
   fun:_ZN8CHeapObjILt512EEnwEmPh
   fun:_ZN2os13create_threadEP6ThreadNS_10ThreadTypeEm
   fun:_ZN10JavaThreadC1EPFvPS_P6ThreadEm
   fun:JVM_StartThread
   obj:*
   obj:*
   obj:*
   obj:*
   fun:_ZN9JavaCalls11call_helperEP9JavaValueP12methodHandleP17JavaCallArgumentsP6Thread
   fun:_ZN9JavaCalls4callEP9JavaValue12methodHandleP17JavaCallArgumentsP6Thread
}
{
   <insert_a_suppression_name_here>
   Memcheck:Leak
   match-leak-kinds: reachable
   fun:malloc
   fun:_ZN2os6mallocEmtPh
   fun:_ZN8CHeapObjILt512EEnwEmPh
   fun:_ZN2os13create_threadEP6ThreadNS_10ThreadTypeEm
   fun:_ZN14CompilerThreadC1EP12CompileQueueP16CompilerCounters
   fun:_ZN13CompileBroker20make_compiler_threadEPKcP12CompileQueueP16CompilerCountersP6Thread
   fun:_ZN13CompileBroker21init_compiler_threadsEii
   fun:_ZN13CompileBroker16compilation_initEv
   fun:_ZN7Threads9create_vmEP14JavaVMInitArgsPb
   fun:JNI_CreateJavaVM
   fun:JavaMain
   fun:start_thread
}
{
   <insert_a_suppression_name_here>
   Memcheck:Leak
   match-leak-kinds: reachable
   fun:malloc
   fun:_ZN2os6mallocEmtPh
   fun:_ZN8CHeapObjILt256EEnwEmPh
   fun:_ZN10Dictionary21add_protection_domainEij19instanceKlassHandle6HandleS1_P6Thread
   fun:_ZN16SystemDictionary26validate_protection_domainE19instanceKlassHandle6HandleS1_P6Thread
   fun:_ZN16SystemDictionary30resolve_instance_class_or_nullEP6Symbol6HandleS2_P6Thread
   fun:_ZN16SystemDictionary15resolve_or_nullEP6Symbol6HandleS2_P6Thread
   fun:_ZN16SystemDictionary15resolve_or_failEP6Symbol6HandleS2_bP6Thread
   fun:_Z28find_class_from_class_loaderP7JNIEnv_P6Symbolh6HandleS3_hP6Thread
   fun:JVM_FindClassFromClass
   fun:load_class_global
   fun:object_fullinfo_to_classclass
}
{
   <insert_a_suppression_name_here>
   Memcheck:Leak
   match-leak-kinds: reachable
   fun:malloc
   fun:_ZN2os6mallocEmtPh
   fun:_ZN9Arguments23PropertyList_unique_addEPP14SystemPropertyPKcPch
   fun:_ZN9Arguments12add_propertyEPKc
   fun:_ZN9Arguments22parse_each_vm_init_argEPK14JavaVMInitArgsP12SysClassPathPb15FlagValueOrigin
   fun:_ZN9Arguments18parse_vm_init_argsEPK14JavaVMInitArgs
   fun:_ZN9Arguments5parseEPK14JavaVMInitArgs
   fun:_ZN7Threads9create_vmEP14JavaVMInitArgsPb
   fun:JNI_CreateJavaVM
   fun:JavaMain
   fun:start_thread
   fun:clone
}
{
   <insert_a_suppression_name_here>
   Memcheck:Leak
   match-leak-kinds: possible
   fun:malloc
   fun:_ZN2os6mallocEmtPh
   fun:_ZN9ParkEventnwEm
   fun:_ZN9ParkEvent8AllocateEP6Thread
   fun:_ZN6ThreadC2Ev
   fun:_ZN10JavaThreadC1Eb
   fun:_ZN7Threads9create_vmEP14JavaVMInitArgsPb
   fun:JNI_CreateJavaVM
   fun:JavaMain
   fun:start_thread
   fun:clone
}
{
   <insert_a_suppression_name_here>
   Memcheck:Leak
   match-leak-kinds: possible
   fun:malloc
   fun:_ZN2os6mallocEmtPh
   fun:_ZN9ParkEventnwEm
   fun:_ZN9ParkEvent8AllocateEP6Thread
   fun:_ZN6ThreadC2Ev
   fun:_ZN11NamedThreadC2Ev
   fun:_ZN8WorkGang15allocate_workerEj
   fun:_ZN8WorkGang18initialize_workersEv
   fun:_ZN16GenCollectedHeapC1EP18GenCollectorPolicy
   fun:_ZN8Universe15initialize_heapEv
   fun:_Z13universe_initv
   fun:_Z12init_globalsv
}
{
   <insert_a_suppression_name_here>
   Memcheck:Leak
   match-leak-kinds: possible
   fun:malloc
   fun:_ZN2os6mallocEmtPh
   fun:_ZN9ParkEventnwEm
   fun:_ZN9ParkEvent8AllocateEP6Thread
   fun:_ZN6ThreadC2Ev
   fun:_ZN11NamedThreadC2Ev
   fun:_ZN18ConcurrentGCThreadC2Ev
   fun:_ZN25ConcurrentMarkSweepThread5startEP12CMSCollector
   fun:_ZN12CMSCollectorC1EP29ConcurrentMarkSweepGenerationS1_P11CardTableRSP25ConcurrentMarkSweepPolicy
   fun:_ZN16GenCollectedHeap20create_cms_collectorEv
   fun:_ZN16GenCollectedHeap10initializeEv
   fun:_ZN8Universe15initialize_heapEv
}
{
   <insert_a_suppression_name_here>
   Memcheck:Leak
   match-leak-kinds: possible
   fun:malloc
   fun:_ZN2os6mallocEmtPh
   fun:_ZN9ParkEventnwEm
   fun:_ZN9ParkEvent8AllocateEP6Thread
   fun:_ZN6ThreadC2Ev
   fun:_ZN11NamedThreadC2Ev
   fun:_ZN8VMThread6createEv
   fun:_ZN7Threads9create_vmEP14JavaVMInitArgsPb
   fun:JNI_CreateJavaVM
   fun:JavaMain
   fun:start_thread
   fun:clone
}
{
   <insert_a_suppression_name_here>
   Memcheck:Leak
   match-leak-kinds: possible
   fun:malloc
   fun:_ZN2os6mallocEmtPh
   fun:_ZN9ParkEventnwEm
   fun:_ZN9ParkEvent8AllocateEP6Thread
   fun:_ZN6ThreadC2Ev
   fun:_ZN10JavaThreadC2EPFvPS_P6ThreadEm
   fun:_ZN21SurrogateLockerThreadC1Ev
   fun:_ZN21SurrogateLockerThread4makeEP6Thread
   fun:_ZN25ConcurrentMarkSweepThread25makeSurrogateLockerThreadEP6Thread
   fun:_ZN7Threads9create_vmEP14JavaVMInitArgsPb
   fun:JNI_CreateJavaVM
   fun:JavaMain
}
{
   <insert_a_suppression_name_here>
   Memcheck:Leak
   match-leak-kinds: possible
   fun:malloc
   fun:_ZN2os6mallocEmtPh
   fun:_ZN9ParkEventnwEm
   fun:_ZN9ParkEvent8AllocateEP6Thread
   fun:_ZN6ThreadC2Ev
   fun:_ZN10JavaThreadC1EPFvPS_P6ThreadEm
   fun:_ZN2os11signal_initEv
   fun:_ZN7Threads9create_vmEP14JavaVMInitArgsPb
   fun:JNI_CreateJavaVM
   fun:JavaMain
   fun:start_thread
   fun:clone
}
{
   <insert_a_suppression_name_here>
   Memcheck:Leak
   match-leak-kinds: possible
   fun:malloc
   fun:_ZN2os6mallocEmtPh
   fun:_ZN9ParkEventnwEm
   fun:_ZN9ParkEvent8AllocateEP6Thread
   fun:_ZN6ThreadC2Ev
   fun:_ZN10JavaThreadC2EPFvPS_P6ThreadEm
   fun:_ZN13ServiceThread10initializeEv
   fun:_ZN10Management10initializeEP6Thread
   fun:_ZN7Threads9create_vmEP14JavaVMInitArgsPb
   fun:JNI_CreateJavaVM
   fun:JavaMain
   fun:start_thread
}
{
   <insert_a_suppression_name_here>
   Memcheck:Leak
   match-leak-kinds: possible
   fun:malloc
   fun:_ZN2os6mallocEmtPh
   fun:_ZN9ParkEventnwEm
   fun:_ZN9ParkEvent8AllocateEP6Thread
   fun:_ZN6ThreadC2Ev
   fun:_ZN10JavaThreadC1EPFvPS_P6ThreadEm
   fun:JVM_StartThread
   obj:*
   obj:*
   obj:*
   obj:*
   obj:*
}
{
   <insert_a_suppression_name_here>
   Memcheck:Leak
   match-leak-kinds: possible
   fun:malloc
   fun:_ZN2os6mallocEmtPh
   fun:_ZN9ParkEventnwEm
   fun:_ZN9ParkEvent8AllocateEP6Thread
   fun:_ZN7Monitor12jvm_raw_lockEv
   fun:JVM_RawMonitorEnter
   fun:ZIP_GetEntry
   fun:ZIP_FindEntry
   fun:_ZN17ClassPathZipEntry11open_streamEPKcP6Thread
   fun:_ZN11ClassLoader14load_classfileEP6SymbolP6Thread
   fun:_ZN16SystemDictionary19load_instance_classEP6Symbol6HandleP6Thread
   fun:_ZN16SystemDictionary30resolve_instance_class_or_nullEP6Symbol6HandleS2_P6Thread
}
{
   <insert_a_suppression_name_here>
   Memcheck:Leak
   match-leak-kinds: indirect
   fun:malloc
   fun:_ZN2os6mallocEmtPh
   fun:_ZN9ParkEventnwEm
   fun:_ZN9ParkEvent8AllocateEP6Thread
   fun:_ZN6ThreadC2Ev
   fun:_ZN13WatcherThread5startEv
   fun:_ZN7Threads9create_vmEP14JavaVMInitArgsPb
   fun:JNI_CreateJavaVM
   fun:JavaMain
   fun:start_thread
   fun:clone
}
{
   <insert_a_suppression_name_here>
   Memcheck:Leak
   match-leak-kinds: reachable
   fun:malloc
   fun:_ZN2os6mallocEmtPh
   fun:_ZN8CHeapObjILt1280EEnwEmPh
   fun:_ZN25ConcurrentMarkSweepPolicy22initialize_size_policyEmmm
   fun:_ZN16GenCollectedHeap15post_initializeEv
   fun:_Z18universe_post_initv
   fun:_Z12init_globalsv
   fun:_ZN7Threads9create_vmEP14JavaVMInitArgsPb
   fun:JNI_CreateJavaVM
   fun:JavaMain
   fun:start_thread
   fun:clone
}
{
   <insert_a_suppression_name_here>
   Memcheck:Leak
   match-leak-kinds: possible
   fun:malloc
   fun:_ZN2os6mallocEmtPh
   fun:_Z12AllocateHeapmtPhN17AllocFailStrategy13AllocFailEnumE
   fun:_ZN14BasicHashtableILt256EE9new_entryEj
   fun:_ZN11ClassLoader11add_packageEPKciP6Thread
   fun:_ZN11ClassLoader14load_classfileEP6SymbolP6Thread
   fun:_ZN16SystemDictionary19load_instance_classEP6Symbol6HandleP6Thread
   fun:_ZN16SystemDictionary30resolve_instance_class_or_nullEP6Symbol6HandleS2_P6Thread
   fun:_ZN16SystemDictionary15resolve_or_nullEP6Symbol6HandleS2_P6Thread
   fun:_ZN16SystemDictionary15resolve_or_failEP6Symbol6HandleS2_bP6Thread
   fun:_ZN19constantPoolOopDesc13klass_at_implE18constantPoolHandleiP6Thread
   fun:_ZN18InterpreterRuntime4_newEP10JavaThreadP19constantPoolOopDesci
}
{
   <insert_a_suppression_name_here>
   Memcheck:Leak
   match-leak-kinds: reachable
   fun:malloc
   fun:_ZN2os6mallocEmtPh
   fun:_Z12AllocateHeapmtPhN17AllocFailStrategy13AllocFailEnumE
   fun:_ZN13instanceKlass14get_jmethod_idE19instanceKlassHandle12methodHandle
   fun:_ZL13get_method_idP7JNIEnv_P7_jclassPKcS4_bP6Thread
   fun:jni_GetMethodID
   fun:_ZL29initializeDirectBufferSupportP7JNIEnv_P10JavaThread
   fun:jni_NewDirectByteBuffer
   fun:Perf_CreateLong
   obj:*
   obj:*
   obj:*
}
{
   <insert_a_suppression_name_here>
   Memcheck:Leak
   match-leak-kinds: reachable
   fun:malloc
   fun:_ZN2os6mallocEmtPh
   fun:_ZN8CHeapObjILt1792EEnwEmPh
   fun:_ZN10JavaThread10initializeEv
   fun:_ZN10JavaThreadC1EPFvPS_P6ThreadEm
   fun:JVM_StartThread
   obj:*
   obj:*
   obj:*
   obj:*
   fun:_ZN9JavaCalls11call_helperEP9JavaValueP12methodHandleP17JavaCallArgumentsP6Thread
   fun:_ZN9JavaCalls4callEP9JavaValue12methodHandleP17JavaCallArgumentsP6Thread
}
{
   <insert_a_suppression_name_here>
   Memcheck:Leak
   match-leak-kinds: possible
   fun:malloc
   fun:_ZN2os6mallocEmtPh
   fun:_ZN8CHeapObjILt1792EEnwEmPh
   fun:_ZN10JavaThread10initializeEv
   fun:_ZN14CompilerThreadC1EP12CompileQueueP16CompilerCounters
   fun:_ZN13CompileBroker20make_compiler_threadEPKcP12CompileQueueP16CompilerCountersP6Thread
   fun:_ZN13CompileBroker21init_compiler_threadsEii
   fun:_ZN13CompileBroker16compilation_initEv
   fun:_ZN7Threads9create_vmEP14JavaVMInitArgsPb
   fun:JNI_CreateJavaVM
   fun:JavaMain
   fun:start_thread
}
{
   <insert_a_suppression_name_here>
   Memcheck:Leak
   match-leak-kinds: reachable
   fun:malloc
   fun:_ZN2os6mallocEmtPh
   fun:_ZN20GenericGrowableArray12raw_allocateEi
   fun:_ZN14TimePartitionsC1Ev
   fun:_ZN16DefNewGenerationC2E13ReservedSpacemiPKc
   fun:_ZN16ParNewGenerationC1E13ReservedSpacemi
   fun:_ZN14GenerationSpec4initE13ReservedSpaceiP9GenRemSet
   fun:_ZN16GenCollectedHeap10initializeEv
   fun:_ZN8Universe15initialize_heapEv
   fun:_Z13universe_initv
   fun:_Z12init_globalsv
   fun:_ZN7Threads9create_vmEP14JavaVMInitArgsPb
}
{
   <insert_a_suppression_name_here>
   Memcheck:Leak
   match-leak-kinds: reachable
   fun:malloc
   fun:_ZN2os6mallocEmtPh
   fun:_ZN20GenericGrowableArray12raw_allocateEi
   fun:_ZN14TimePartitionsC1Ev
   fun:_ZN12CMSCollectorC1EP29ConcurrentMarkSweepGenerationS1_P11CardTableRSP25ConcurrentMarkSweepPolicy
   fun:_ZN16GenCollectedHeap20create_cms_collectorEv
   fun:_ZN16GenCollectedHeap10initializeEv
   fun:_ZN8Universe15initialize_heapEv
   fun:_Z13universe_initv
   fun:_Z12init_globalsv
   fun:_ZN7Threads9create_vmEP14JavaVMInitArgsPb
   fun:JNI_CreateJavaVM
}
{
   <insert_a_suppression_name_here>
   Memcheck:Leak
   match-leak-kinds: reachable
   fun:malloc
   fun:_ZN2os6mallocEmtPh
   fun:_ZN20GenericGrowableArray12raw_allocateEi
   fun:_ZN14TimePartitionsC1Ev
   fun:_Z14marksweep_initv
   fun:_Z12init_globalsv
   fun:_ZN7Threads9create_vmEP14JavaVMInitArgsPb
   fun:JNI_CreateJavaVM
   fun:JavaMain
   fun:start_thread
   fun:clone
}
{
   <insert_a_suppression_name_here>
   Memcheck:Leak
   match-leak-kinds: reachable
   fun:malloc
   fun:strdup
   fun:_ZN9Arguments22parse_each_vm_init_argEPK14JavaVMInitArgsP12SysClassPathPb15FlagValueOrigin
   fun:_ZN9Arguments18parse_vm_init_argsEPK14JavaVMInitArgs
   fun:_ZN9Arguments5parseEPK14JavaVMInitArgs
   fun:_ZN7Threads9create_vmEP14JavaVMInitArgsPb
   fun:JNI_CreateJavaVM
   fun:JavaMain
   fun:start_thread
   fun:clone
}
{
   <insert_a_suppression_name_here>
   Memcheck:Leak
   match-leak-kinds: possible
   fun:calloc
   fun:allocate_dtv
   fun:_dl_allocate_tls
   fun:allocate_stack
   fun:pthread_create@@GLIBC_2.2.5
   fun:_ZN2os13create_threadEP6ThreadNS_10ThreadTypeEm
   fun:_ZN10JavaThreadC1EPFvPS_P6ThreadEm
   fun:JVM_StartThread
   obj:*
   obj:*
   obj:*
   obj:*
   fun:_ZN9JavaCalls11call_helperEP9JavaValueP12methodHandleP17JavaCallArgumentsP6Thread
   fun:_ZN9JavaCalls4callEP9JavaValue12methodHandleP17JavaCallArgumentsP6Thread
}
{
   <insert_a_suppression_name_here>
   Memcheck:Leak
   match-leak-kinds: possible
   fun:calloc
   fun:allocate_dtv
   fun:_dl_allocate_tls
   fun:allocate_stack
   fun:pthread_create@@GLIBC_2.2.5
   fun:_ZN2os13create_threadEP6ThreadNS_10ThreadTypeEm
   fun:_ZN14CompilerThreadC1EP12CompileQueueP16CompilerCounters
   fun:_ZN13CompileBroker20make_compiler_threadEPKcP12CompileQueueP16CompilerCountersP6Thread
   fun:_ZN13CompileBroker21init_compiler_threadsEii
   fun:_ZN13CompileBroker16compilation_initEv
   fun:_ZN7Threads9create_vmEP14JavaVMInitArgsPb
   fun:JNI_CreateJavaVM
   fun:JavaMain
   fun:start_thread
}
{
   <insert_a_suppression_name_here>
   Memcheck:Leak
   match-leak-kinds: reachable
   fun:malloc
   fun:_ZN2os6mallocEmtPh
   fun:_ZN6SymbolnwEmiP6Thread
   fun:_ZN11SymbolTable15allocate_symbolEPKhibP6Thread
   fun:_ZN11SymbolTable9basic_addEiPhijbP6Thread
   fun:_ZN11SymbolTable6lookupEPKciP6Thread
   fun:JVM_FindLoadedClass
   obj:*
   obj:*
   obj:*
   obj:*
   obj:*
}
{
   <insert_a_suppression_name_here>
   Memcheck:Leak
   match-leak-kinds: reachable
   fun:malloc
   fun:_ZN2os6mallocEmtPh
   fun:_ZN8CHeapObjILt1792EEnwEmPh
   fun:_ZN14JNIHandleBlock14allocate_blockEP6Thread
   fun:_ZN15JavaCallWrapperC1E12methodHandle6HandleP9JavaValueP6Thread
   fun:_ZN9JavaCalls11call_helperEP9JavaValueP12methodHandleP17JavaCallArgumentsP6Thread
   fun:_ZN9JavaCalls4callEP9JavaValue12methodHandleP17JavaCallArgumentsP6Thread
   fun:_ZN13instanceKlass22call_class_initializerEP6Thread
   fun:_ZN13instanceKlass15initialize_implE19instanceKlassHandleP6Thread
   fun:_ZN13instanceKlass10initializeEP6Thread
   fun:_ZN13instanceKlass15initialize_implE19instanceKlassHandleP6Thread
   fun:_ZN13instanceKlass10initializeEP6Thread
}
{
   <insert_a_suppression_name_here>
   Memcheck:Leak
   match-leak-kinds: reachable
   fun:malloc
   fun:_ZN2os6mallocEmtPh
   fun:_ZN8CHeapObjILt1792EEnwEmPh
   fun:_ZN14JNIHandleBlock14allocate_blockEP6Thread
   fun:_ZN15JavaCallWrapperC1E12methodHandle6HandleP9JavaValueP6Thread
   fun:_ZN9JavaCalls11call_helperEP9JavaValueP12methodHandleP17JavaCallArgumentsP6Thread
   fun:_ZN9JavaCalls4callEP9JavaValue12methodHandleP17JavaCallArgumentsP6Thread
   fun:_ZN9JavaCalls12call_virtualEP9JavaValue11KlassHandleP6SymbolS4_P17JavaCallArgumentsP6Thread
   fun:_ZN9JavaCalls12call_virtualEP9JavaValue6Handle11KlassHandleP6SymbolS5_P6Thread
   fun:_ZL12thread_entryP10JavaThreadP6Thread
   fun:_ZN10JavaThread17thread_main_innerEv
   fun:_ZN10JavaThread3runEv
}
{
   <insert_a_suppression_name_here>
   Memcheck:Leak
   match-leak-kinds: reachable
   fun:malloc
   fun:_ZN2os6mallocEmtPh
   fun:_ZN8CHeapObjILt1792EEnwEmPh
   fun:_ZN14JNIHandleBlock14allocate_blockEP6Thread
   fun:_ZN15JavaCallWrapperC1E12methodHandle6HandleP9JavaValueP6Thread
   fun:_ZN9JavaCalls11call_helperEP9JavaValueP12methodHandleP17JavaCallArgumentsP6Thread
   fun:_ZN9JavaCalls4callEP9JavaValue12methodHandleP17JavaCallArgumentsP6Thread
   fun:_ZN13instanceKlass22call_class_initializerEP6Thread
   fun:_ZN13instanceKlass15initialize_implE19instanceKlassHandleP6Thread
   fun:_ZN13instanceKlass10initializeEP6Thread
   fun:_ZN18InterpreterRuntime4_newEP10JavaThreadP19constantPoolOopDesci
   obj:*
}
{
   <insert_a_suppression_name_here>
   Memcheck:Leak
   match-leak-kinds: possible
   fun:malloc
   fun:_ZN2os6mallocEmtPh
   fun:_ZN8CHeapObjILt1792EEnwEmPh
   fun:_ZN14JNIHandleBlock14allocate_blockEP6Thread
   fun:_ZN13CompileBroker25invoke_compiler_on_methodEP11CompileTask
   fun:_ZN13CompileBroker20compiler_thread_loopEv
   fun:_ZN10JavaThread17thread_main_innerEv
   fun:_ZN10JavaThread3runEv
   fun:_ZL10java_startP6Thread
   fun:start_thread
   fun:clone
}
{
   <insert_a_suppression_name_here>
   Memcheck:Leak
   match-leak-kinds: possible
   fun:malloc
   fun:_ZN2os6mallocEmtPh
   fun:_ZN8CHeapObjILt1792EEnwEmPh
   fun:_ZN14JNIHandleBlock14allocate_blockEP6Thread
   fun:_ZN15JavaCallWrapperC1E12methodHandle6HandleP9JavaValueP6Thread
   fun:_ZN9JavaCalls11call_helperEP9JavaValueP12methodHandleP17JavaCallArgumentsP6Thread
   fun:_ZN9JavaCalls4callEP9JavaValue12methodHandleP17JavaCallArgumentsP6Thread
   fun:_ZL20jni_invoke_nonstaticP7JNIEnv_P9JavaValueP8_jobject11JNICallTypeP10_jmethodIDP18JNI_ArgumentPusherP6Thread
   fun:jni_CallObjectMethod
   fun:JNU_GetStringPlatformChars
   fun:Java_java_io_UnixFileSystem_getBooleanAttributes0
   obj:*
}
{
   <insert_a_suppression_name_here>
   Memcheck:Leak
   match-leak-kinds: reachable
   fun:calloc
   fun:_dl_check_map_versions
   fun:dl_open_worker
   fun:_dl_catch_exception
   fun:_dl_open
   fun:dlopen_doit
   fun:_dl_catch_exception
   fun:_dl_catch_error
   fun:_dlerror_run
   fun:dlopen@@GLIBC_2.2.5
   fun:LoadJavaVM
   fun:JLI_Launch
}
{
   <insert_a_suppression_name_here>
   Memcheck:Leak
   match-leak-kinds: reachable
   fun:malloc
   fun:strdup
   fun:_ZN11ClassLoader16setup_meta_indexEv
   fun:_ZN11ClassLoader10initializeEv
   fun:_Z12init_globalsv
   fun:_ZN7Threads9create_vmEP14JavaVMInitArgsPb
   fun:JNI_CreateJavaVM
   fun:JavaMain
   fun:start_thread
   fun:clone
}
{
   <insert_a_suppression_name_here>
   Memcheck:Leak
   match-leak-kinds: reachable
   fun:malloc
   fun:_ZN2os6mallocEmtPh
   fun:_Z12AllocateHeapmtPhN17AllocFailStrategy13AllocFailEnumE
   fun:_ZN13instanceKlass14get_jmethod_idE19instanceKlassHandle12methodHandle
   fun:_ZL13get_method_idP7JNIEnv_P7_jclassPKcS4_bP6Thread
   fun:jni_GetMethodID
   fun:initializeEncoding
   fun:JNU_NewStringPlatform
   fun:Java_java_lang_System_initProperties
   obj:*
   obj:*
   obj:*
}
{
   <insert_a_suppression_name_here>
   Memcheck:Leak
   match-leak-kinds: reachable
   fun:malloc
   fun:_ZN2os6mallocEmtPh
   fun:_ZN21LoaderConstraintTableC1Ei
   fun:_ZN16SystemDictionary10initializeEP6Thread
   fun:_ZN8Universe7genesisEP6Thread
   fun:_Z14universe2_initv
   fun:_Z12init_globalsv
   fun:_ZN7Threads9create_vmEP14JavaVMInitArgsPb
   fun:JNI_CreateJavaVM
   fun:JavaMain
   fun:start_thread
   fun:clone
}
{
   <insert_a_suppression_name_here>
   Memcheck:Leak
   match-leak-kinds: reachable
   fun:malloc
   fun:_ZN2os6mallocEmtPh
   fun:_ZN20ResolutionErrorTableC1Ei
   fun:_ZN16SystemDictionary10initializeEP6Thread
   fun:_ZN8Universe7genesisEP6Thread
   fun:_Z14universe2_initv
   fun:_Z12init_globalsv
   fun:_ZN7Threads9create_vmEP14JavaVMInitArgsPb
   fun:JNI_CreateJavaVM
   fun:JavaMain
   fun:start_thread
   fun:clone
}
{
   <insert_a_suppression_name_here>
   Memcheck:Leak
   match-leak-kinds: reachable
   fun:malloc
   fun:_ZN2os6mallocEmtPh
   fun:_ZN8CHeapObjILt1792EEnwEmPh
   fun:_ZN14JNIHandleBlock14allocate_blockEP6Thread
   fun:_ZN15JavaCallWrapperC1E12methodHandle6HandleP9JavaValueP6Thread
   fun:_ZN9JavaCalls11call_helperEP9JavaValueP12methodHandleP17JavaCallArgumentsP6Thread
   fun:_ZN9JavaCalls4callEP9JavaValue12methodHandleP17JavaCallArgumentsP6Thread
   fun:_ZN13instanceKlass22call_class_initializerEP6Thread
   fun:_ZN13instanceKlass15initialize_implE19instanceKlassHandleP6Thread
   fun:_ZN13instanceKlass10initializeEP6Thread
   fun:_ZN12LinkResolver19resolve_static_callER8CallInfoR11KlassHandleP6SymbolS5_S2_bbP6Thread
   fun:_ZN12LinkResolver20resolve_invokestaticER8CallInfo18constantPoolHandleiP6Thread
}
{
   <insert_a_suppression_name_here>
   Memcheck:Leak
   match-leak-kinds: reachable
   fun:malloc
   fun:_ZN2os6mallocEmtPh
   fun:_ZN8CHeapObjILt1792EEnwEmPh
   fun:_ZN14JNIHandleBlock14allocate_blockEP6Thread
   fun:_ZN15JavaCallWrapperC1E12methodHandle6HandleP9JavaValueP6Thread
   fun:_ZN9JavaCalls11call_helperEP9JavaValueP12methodHandleP17JavaCallArgumentsP6Thread
   fun:_ZN9JavaCalls4callEP9JavaValue12methodHandleP17JavaCallArgumentsP6Thread
   fun:_ZL20jni_invoke_nonstaticP7JNIEnv_P9JavaValueP8_jobject11JNICallTypeP10_jmethodIDP18JNI_ArgumentPusherP6Thread
   fun:jni_CallObjectMethod
   fun:JNU_GetStringPlatformChars
   fun:Java_java_io_UnixFileSystem_getBooleanAttributes0
   obj:*
}
{
   <insert_a_suppression_name_here>
   Memcheck:Leak
   match-leak-kinds: possible
   fun:malloc
   fun:_ZN2os6mallocEmtPh
   fun:_ZN8CHeapObjILt1792EEnwEmPh
   fun:_ZN14JNIHandleBlock14allocate_blockEP6Thread
   fun:_ZN15JavaCallWrapperC1E12methodHandle6HandleP9JavaValueP6Thread
   fun:_ZN9JavaCalls11call_helperEP9JavaValueP12methodHandleP17JavaCallArgumentsP6Thread
   fun:_ZN9JavaCalls4callEP9JavaValue12methodHandleP17JavaCallArgumentsP6Thread
   fun:JVM_DoPrivileged
   obj:*
   obj:*
   obj:*
   obj:*
}
{
   <insert_a_suppression_name_here>
   Memcheck:Leak
   match-leak-kinds: reachable
   fun:malloc
   fun:_ZN2os6mallocEmtPh
   fun:_ZN6SymbolnwEmiP6Thread
   fun:_ZN11SymbolTable15allocate_symbolEPKhibP6Thread
   fun:_ZN11SymbolTable9basic_addEiPhijbP6Thread
   fun:_ZN11SymbolTable6lookupEPKciP6Thread
   fun:_ZL23jvm_define_class_commonP7JNIEnv_PKcP8_jobjectPKaiS4_S2_hP6Thread
   fun:JVM_DefineClass
   fun:_ZL18Unsafe_DefineClassP7JNIEnv_P8_jstringP11_jbyteArrayiiP8_jobjectS6_
   fun:Unsafe_DefineClass1
   obj:*
   obj:*
}
{
   <insert_a_suppression_name_here>
   Memcheck:Leak
   match-leak-kinds: possible
   fun:malloc
   fun:_ZN2os6mallocEmtPh
   fun:_ZN9ParkEventnwEm
   fun:_ZN9ParkEvent8AllocateEP6Thread
   fun:_ZN6ThreadC2Ev
   fun:_ZN10JavaThreadC1EPFvPS_P6ThreadEm
   fun:JVM_StartThread
   obj:*
   obj:*
   obj:*
   obj:*
   fun:_ZN9JavaCalls11call_helperEP9JavaValueP12methodHandleP17JavaCallArgumentsP6Thread
}
{
   <insert_a_suppression_name_here>
   Memcheck:Leak
   match-leak-kinds: possible
   fun:malloc
   fun:_ZN2os6mallocEmtPh
   fun:_ZN9ParkEventnwEm
   fun:_ZN9ParkEvent8AllocateEP6Thread
   fun:_ZN6ThreadC2Ev
   fun:_ZN14CompilerThreadC1EP12CompileQueueP16CompilerCounters
   fun:_ZN13CompileBroker20make_compiler_threadEPKcP12CompileQueueP16CompilerCountersP6Thread
   fun:_ZN13CompileBroker21init_compiler_threadsEii
   fun:_ZN13CompileBroker16compilation_initEv
   fun:_ZN7Threads9create_vmEP14JavaVMInitArgsPb
   fun:JNI_CreateJavaVM
   fun:JavaMain
}
{
   <insert_a_suppression_name_here>
   Memcheck:Leak
   match-leak-kinds: reachable
   fun:malloc
   fun:_ZN2os6mallocEmtPh
   fun:_ZN9ChunkPool8allocateEmN17AllocFailStrategy13AllocFailEnumE
   fun:_ZN5ArenaC1Ev
   fun:_ZN10CodeBuffer21create_patch_overflowEv
   fun:_ZN5Label12add_patch_atEP10CodeBufferi
   fun:_ZN9Assembler3jccENS_9ConditionER5Labelb
   fun:_ZN25InterpreterMacroAssembler11lock_objectEP12RegisterImpl
   fun:_ZN20InterpreterGenerator11lock_methodEv
   fun:_ZN20InterpreterGenerator21generate_normal_entryEb
   fun:_ZN28AbstractInterpreterGenerator21generate_method_entryEN19AbstractInterpreter10MethodKindE
   fun:_ZN28TemplateInterpreterGenerator12generate_allEv
}
{
   <insert_a_suppression_name_here>
   Memcheck:Leak
   match-leak-kinds: reachable
   fun:malloc
   fun:_ZN2os6mallocEmtPh
   fun:_ZN9ChunkPool8allocateEmN17AllocFailStrategy13AllocFailEnumE
   fun:_ZN5ArenaC2Ev
   fun:_ZN6ThreadC2Ev
   fun:_ZN11NamedThreadC2Ev
   fun:_ZN8VMThread6createEv
   fun:_ZN7Threads9create_vmEP14JavaVMInitArgsPb
   fun:JNI_CreateJavaVM
   fun:JavaMain
   fun:start_thread
   fun:clone
}
{
   <insert_a_suppression_name_here>
   Memcheck:Leak
   match-leak-kinds: reachable
   fun:malloc
   fun:_ZN2os6mallocEmtPh
   fun:_ZN9ChunkPool8allocateEmN17AllocFailStrategy13AllocFailEnumE
   fun:_ZN5ArenaC2Ev
   fun:_ZN6ThreadC2Ev
   fun:_ZN10JavaThreadC2EPFvPS_P6ThreadEm
   fun:_ZN21SurrogateLockerThreadC1Ev
   fun:_ZN21SurrogateLockerThread4makeEP6Thread
   fun:_ZN25ConcurrentMarkSweepThread25makeSurrogateLockerThreadEP6Thread
   fun:_ZN7Threads9create_vmEP14JavaVMInitArgsPb
   fun:JNI_CreateJavaVM
   fun:JavaMain
}
{
   <insert_a_suppression_name_here>
   Memcheck:Leak
   match-leak-kinds: reachable
   fun:malloc
   fun:_ZN2os6mallocEmtPh
   fun:_ZN9ChunkPool8allocateEmN17AllocFailStrategy13AllocFailEnumE
   fun:_ZN5ArenaC2Ev
   fun:_ZN6ThreadC2Ev
   fun:_ZN10JavaThreadC1EPFvPS_P6ThreadEm
   fun:_ZN2os11signal_initEv
   fun:_ZN7Threads9create_vmEP14JavaVMInitArgsPb
   fun:JNI_CreateJavaVM
   fun:JavaMain
   fun:start_thread
   fun:clone
}
{
   <insert_a_suppression_name_here>
   Memcheck:Leak
   match-leak-kinds: reachable
   fun:malloc
   fun:_ZN2os6mallocEmtPh
   fun:_ZN9ChunkPool8allocateEmN17AllocFailStrategy13AllocFailEnumE
   fun:_ZN5ArenaC1Ev
   fun:_ZN5ciEnvC1EP5Arena
   fun:_ZN15ciObjectFactory10initializeEv
   fun:_ZN13CompileBroker20compiler_thread_loopEv
   fun:_ZN10JavaThread17thread_main_innerEv
   fun:_ZN10JavaThread3runEv
   fun:_ZL10java_startP6Thread
   fun:start_thread
   fun:clone
}
{
   <insert_a_suppression_name_here>
   Memcheck:Leak
   match-leak-kinds: reachable
   fun:malloc
   fun:_ZN2os6mallocEmtPh
   fun:_ZN9ChunkPool8allocateEmN17AllocFailStrategy13AllocFailEnumE
   fun:_ZN5ArenaC2Ev
   fun:_ZN6ThreadC2Ev
   fun:_ZN10JavaThreadC2EPFvPS_P6ThreadEm
   fun:_ZN13ServiceThread10initializeEv
   fun:_ZN10Management10initializeEP6Thread
   fun:_ZN7Threads9create_vmEP14JavaVMInitArgsPb
   fun:JNI_CreateJavaVM
   fun:JavaMain
   fun:start_thread
}
{
   <insert_a_suppression_name_here>
   Memcheck:Leak
   match-leak-kinds: reachable
   fun:malloc
   fun:_ZN2os6mallocEmtPh
   fun:_ZN9ChunkPool8allocateEmN17AllocFailStrategy13AllocFailEnumE
   fun:_ZN5ArenaC1Ev
   fun:_ZN7CompileC1EP5ciEnvPFPK8TypeFuncvEPhPKcibbb
   fun:_ZN11OptoRuntime13generate_stubEP5ciEnvPFPK8TypeFuncvEPhPKcibbb
   fun:_ZN11OptoRuntime8generateEP5ciEnv
   fun:_ZN10C2Compiler18initialize_runtimeEv
   fun:_ZN16AbstractCompiler19initialize_runtimesEPFvvEPVi
   fun:_ZN10C2Compiler10initializeEv
   fun:_ZN10C2Compiler14compile_methodEP5ciEnvP8ciMethodi
   fun:_ZN13CompileBroker25invoke_compiler_on_methodEP11CompileTask
}
{
   <insert_a_suppression_name_here>
   Memcheck:Leak
   match-leak-kinds: possible
   fun:malloc
   fun:_ZN2os6mallocEmtPh
   fun:_ZN9ChunkPool8allocateEmN17AllocFailStrategy13AllocFailEnumE
   fun:_ZN5ArenaC2Ev
   fun:_ZN6ThreadC2Ev
   fun:_ZN10JavaThreadC1Eb
   fun:_ZN7Threads9create_vmEP14JavaVMInitArgsPb
   fun:JNI_CreateJavaVM
   fun:JavaMain
   fun:start_thread
   fun:clone
}
{
   <insert_a_suppression_name_here>
   Memcheck:Leak
   match-leak-kinds: possible
   fun:malloc
   fun:_ZN2os6mallocEmtPh
   fun:_ZN9ChunkPool8allocateEmN17AllocFailStrategy13AllocFailEnumE
   fun:_ZN5ArenaC2Ev
   fun:_ZN6ThreadC2Ev
   fun:_ZN11NamedThreadC2Ev
   fun:_ZN8WorkGang15allocate_workerEj
   fun:_ZN8WorkGang18initialize_workersEv
   fun:_ZN16GenCollectedHeapC1EP18GenCollectorPolicy
   fun:_ZN8Universe15initialize_heapEv
   fun:_Z13universe_initv
   fun:_Z12init_globalsv
}
{
   <insert_a_suppression_name_here>
   Memcheck:Leak
   match-leak-kinds: possible
   fun:malloc
   fun:_ZN2os6mallocEmtPh
   fun:_ZN9ChunkPool8allocateEmN17AllocFailStrategy13AllocFailEnumE
   fun:_ZN5ArenaC2Ev
   fun:_ZN6ThreadC2Ev
   fun:_ZN11NamedThreadC2Ev
   fun:_ZN18ConcurrentGCThreadC2Ev
   fun:_ZN25ConcurrentMarkSweepThread5startEP12CMSCollector
   fun:_ZN12CMSCollectorC1EP29ConcurrentMarkSweepGenerationS1_P11CardTableRSP25ConcurrentMarkSweepPolicy
   fun:_ZN16GenCollectedHeap20create_cms_collectorEv
   fun:_ZN16GenCollectedHeap10initializeEv
   fun:_ZN8Universe15initialize_heapEv
}
{
   <insert_a_suppression_name_here>
   Memcheck:Leak
   match-leak-kinds: possible
   fun:malloc
   fun:_ZN2os6mallocEmtPh
   fun:_ZN9ChunkPool8allocateEmN17AllocFailStrategy13AllocFailEnumE
   fun:_ZN5ArenaC1Ev
   fun:_ZN15ciObjectFactory10initializeEv
   fun:_ZN13CompileBroker20compiler_thread_loopEv
   fun:_ZN10JavaThread17thread_main_innerEv
   fun:_ZN10JavaThread3runEv
   fun:_ZL10java_startP6Thread
   fun:start_thread
   fun:clone
}
{
   <insert_a_suppression_name_here>
   Memcheck:Leak
   match-leak-kinds: possible
   fun:malloc
   fun:_ZN2os6mallocEmtPh
   fun:_ZN9ChunkPool8allocateEmN17AllocFailStrategy13AllocFailEnumE
   fun:_ZN5ArenaC1Ev
   fun:_ZN4Type17Initialize_sharedEP7Compile
   fun:_ZN4Type10InitializeEP7Compile
   fun:_ZN7CompileC1EP5ciEnvPFPK8TypeFuncvEPhPKcibbb
   fun:_ZN11OptoRuntime13generate_stubEP5ciEnvPFPK8TypeFuncvEPhPKcibbb
   fun:_ZN11OptoRuntime8generateEP5ciEnv
   fun:_ZN10C2Compiler18initialize_runtimeEv
   fun:_ZN16AbstractCompiler19initialize_runtimesEPFvvEPVi
   fun:_ZN10C2Compiler10initializeEv
}
{
   <insert_a_suppression_name_here>
   Memcheck:Leak
   match-leak-kinds: indirect
   fun:malloc
   fun:_ZN2os6mallocEmtPh
   fun:_ZN9ChunkPool8allocateEmN17AllocFailStrategy13AllocFailEnumE
   fun:_ZN5ArenaC2Ev
   fun:_ZN6ThreadC2Ev
   fun:_ZN13WatcherThread5startEv
   fun:_ZN7Threads9create_vmEP14JavaVMInitArgsPb
   fun:JNI_CreateJavaVM
   fun:JavaMain
   fun:start_thread
   fun:clone
}
{
   <insert_a_suppression_name_here>
   Memcheck:Leak
   match-leak-kinds: reachable
   fun:malloc
   fun:_ZN2os6mallocEmtPh
   fun:_ZN20GenericGrowableArray12raw_allocateEi
   fun:_ZN23SignatureHandlerLibrary3addE12methodHandle
   fun:_ZN18InterpreterRuntime19prepare_native_callEP10JavaThreadP13methodOopDesc
   obj:*
   obj:*
   obj:*
   obj:*
   obj:*
   obj:*
   obj:*
}
{
   <insert_a_suppression_name_here>
   Memcheck:Leak
   match-leak-kinds: possible
   fun:malloc
   fun:_ZN2os6mallocEmtPh
   fun:_Z12AllocateHeapmtPhN17AllocFailStrategy13AllocFailEnumE
   fun:_ZN14BasicHashtableILt256EE9new_entryEj
   fun:_ZN11ClassLoader11add_packageEPKciP6Thread
   fun:_ZN11ClassLoader14load_classfileEP6SymbolP6Thread
   fun:_ZN16SystemDictionary19load_instance_classEP6Symbol6HandleP6Thread
   fun:_ZN16SystemDictionary30resolve_instance_class_or_nullEP6Symbol6HandleS2_P6Thread
   fun:_ZN16SystemDictionary15resolve_or_nullEP6Symbol6HandleS2_P6Thread
   fun:_ZN16SystemDictionary21resolve_super_or_failEP6SymbolS1_6HandleS2_bP6Thread
   fun:_ZN15ClassFileParser16parse_interfacesE18constantPoolHandlei6HandleS1_P6SymbolP6Thread
   fun:_ZN15ClassFileParser14parseClassFileEP6Symbol6HandleS2_11KlassHandleP13GrowableArrayIS2_ER13TempNewSymbolbP6Thread
}
{
   <insert_a_suppression_name_here>
   Memcheck:Leak
   match-leak-kinds: reachable
   fun:malloc
   fun:_ZN2os6mallocEmtPh
   fun:_ZN19SymbolPropertyTableC1Ei
   fun:_ZN16SystemDictionary10initializeEP6Thread
   fun:_ZN8Universe7genesisEP6Thread
   fun:_Z14universe2_initv
   fun:_Z12init_globalsv
   fun:_ZN7Threads9create_vmEP14JavaVMInitArgsPb
   fun:JNI_CreateJavaVM
   fun:JavaMain
   fun:start_thread
   fun:clone
}
{
   <insert_a_suppression_name_here>
   Memcheck:Leak
   match-leak-kinds: reachable
   fun:malloc
   fun:_ZN2os6mallocEmtPh
   fun:_ZN8CHeapObjILt256EEnwEmPh
   fun:_ZN11ClassLoader23create_class_path_entryEPcPK4statbP6Thread
   fun:_ZN11ClassLoader27setup_bootstrap_search_pathEv
   fun:_ZN11ClassLoader10initializeEv
   fun:_Z12init_globalsv
   fun:_ZN7Threads9create_vmEP14JavaVMInitArgsPb
   fun:JNI_CreateJavaVM
   fun:JavaMain
   fun:start_thread
   fun:clone
}
{
   <insert_a_suppression_name_here>
   Memcheck:Leak
   match-leak-kinds: reachable
   fun:realloc
   fun:readCEN
   fun:ZIP_Put_In_Cache0
   fun:Java_java_util_zip_ZipFile_open
   obj:*
   obj:*
   obj:*
   obj:*
   obj:*
   obj:*
   obj:*
   obj:*
}
{
   <insert_a_suppression_name_here>
   Memcheck:Leak
   match-leak-kinds: possible
   fun:malloc
   fun:_ZN2os6mallocEmtPh
   fun:_ZN8CHeapObjILt1792EEnwEmPh
   fun:_ZN14JNIHandleBlock14allocate_blockEP6Thread
   fun:_ZN10JavaThread3runEv
   fun:_ZL10java_startP6Thread
   fun:start_thread
   fun:clone
}
{
   <insert_a_suppression_name_here>
   Memcheck:Leak
   match-leak-kinds: possible
   fun:malloc
   fun:_ZN2os6mallocEmtPh
   fun:_ZN8CHeapObjILt1792EEnwEmPh
   fun:_ZN14JNIHandleBlock14allocate_blockEP6Thread
   fun:_ZN15JavaCallWrapperC1E12methodHandle6HandleP9JavaValueP6Thread
   fun:_ZN9JavaCalls11call_helperEP9JavaValueP12methodHandleP17JavaCallArgumentsP6Thread
   fun:_ZN9JavaCalls4callEP9JavaValue12methodHandleP17JavaCallArgumentsP6Thread
   fun:_ZN9JavaCalls12call_virtualEP9JavaValue11KlassHandleP6SymbolS4_P17JavaCallArgumentsP6Thread
   fun:_ZN9JavaCalls12call_virtualEP9JavaValue6Handle11KlassHandleP6SymbolS5_P6Thread
   fun:_ZL12thread_entryP10JavaThreadP6Thread
   fun:_ZN10JavaThread17thread_main_innerEv
   fun:_ZN10JavaThread3runEv
}
{
   <insert_a_suppression_name_here>
   Memcheck:Leak
   match-leak-kinds: reachable
   fun:malloc
   fun:_ZN2os6mallocEmtPh
   fun:_ZN8CHeapObjILt1024EEnwEmPh
   fun:_ZN21AdapterHandlerLibrary11get_adapterE12methodHandle
   fun:_ZN13methodOopDesc13make_adaptersE12methodHandleP6Thread
   fun:_ZN8Rewriter17relocate_and_linkE19instanceKlassHandle14objArrayHandleP6Thread
   fun:_ZN13instanceKlass15link_class_implE19instanceKlassHandlebP6Thread
   fun:_ZN13instanceKlass15initialize_implE19instanceKlassHandleP6Thread
   fun:_ZN13instanceKlass10initializeEP6Thread
   fun:_ZN12LinkResolver19resolve_static_callER8CallInfoR11KlassHandleP6SymbolS5_S2_bbP6Thread
   fun:_ZN12LinkResolver20resolve_invokestaticER8CallInfo18constantPoolHandleiP6Thread
   fun:_ZN18InterpreterRuntime14resolve_invokeEP10JavaThreadN9Bytecodes4CodeE
}
{
   <insert_a_suppression_name_here>
   Memcheck:Leak
   match-leak-kinds: reachable
   fun:malloc
   fun:_ZN2os6mallocEmtPh
   fun:_ZN9ChunkPool8allocateEmN17AllocFailStrategy13AllocFailEnumE
   fun:_ZN5ArenaC2Ev
   fun:_ZN6ThreadC2Ev
   fun:_ZN10JavaThreadC1EPFvPS_P6ThreadEm
   fun:JVM_StartThread
   obj:*
   obj:*
   obj:*
   obj:*
   fun:_ZN9JavaCalls11call_helperEP9JavaValueP12methodHandleP17JavaCallArgumentsP6Thread
}
{
   <insert_a_suppression_name_here>
   Memcheck:Leak
   match-leak-kinds: reachable
   fun:malloc
   fun:_ZN2os6mallocEmtPh
   fun:_ZN9ChunkPool8allocateEmN17AllocFailStrategy13AllocFailEnumE
   fun:_ZN5ArenaC2Ev
   fun:_ZN6ThreadC2Ev
   fun:_ZN14CompilerThreadC1EP12CompileQueueP16CompilerCounters
   fun:_ZN13CompileBroker20make_compiler_threadEPKcP12CompileQueueP16CompilerCountersP6Thread
   fun:_ZN13CompileBroker21init_compiler_threadsEii
   fun:_ZN13CompileBroker16compilation_initEv
   fun:_ZN7Threads9create_vmEP14JavaVMInitArgsPb
   fun:JNI_CreateJavaVM
   fun:JavaMain
}
{
   <insert_a_suppression_name_here>
   Memcheck:Leak
   match-leak-kinds: reachable
   fun:malloc
   fun:_ZN2os6mallocEmtPh
   fun:_ZN9ChunkPool8allocateEmN17AllocFailStrategy13AllocFailEnumE
   fun:_ZN5ArenaC1Ev
   fun:_ZN5ciEnvC1EP11CompileTaski
   fun:_ZN13CompileBroker25invoke_compiler_on_methodEP11CompileTask
   fun:_ZN13CompileBroker20compiler_thread_loopEv
   fun:_ZN10JavaThread17thread_main_innerEv
   fun:_ZN10JavaThread3runEv
   fun:_ZL10java_startP6Thread
   fun:start_thread
   fun:clone
}
{
   <insert_a_suppression_name_here>
   Memcheck:Leak
   match-leak-kinds: reachable
   fun:malloc
   fun:_ZN2os6mallocEmtPh
   fun:_ZN9ChunkPool8allocateEmN17AllocFailStrategy13AllocFailEnumE
   fun:_ZN5ArenaC1Ev
   fun:_ZN7CompileC1EP5ciEnvP10C2CompilerP8ciMethodibb
   fun:_ZN10C2Compiler14compile_methodEP5ciEnvP8ciMethodi
   fun:_ZN13CompileBroker25invoke_compiler_on_methodEP11CompileTask
   fun:_ZN13CompileBroker20compiler_thread_loopEv
   fun:_ZN10JavaThread17thread_main_innerEv
   fun:_ZN10JavaThread3runEv
   fun:_ZL10java_startP6Thread
   fun:start_thread
}
{
   <insert_a_suppression_name_here>
   Memcheck:Leak
   match-leak-kinds: reachable
   fun:malloc
   fun:_ZN2os6mallocEmtPh
   fun:_Z12AllocateHeapmtPhN17AllocFailStrategy13AllocFailEnumE
   fun:_ZN14BasicHashtableILt256EE9new_entryEj
   fun:_ZN11ClassLoader11add_packageEPKciP6Thread
   fun:_ZN11ClassLoader14load_classfileEP6SymbolP6Thread
   fun:_ZN16SystemDictionary19load_instance_classEP6Symbol6HandleP6Thread
   fun:_ZN16SystemDictionary30resolve_instance_class_or_nullEP6Symbol6HandleS2_P6Thread
   fun:_ZN16SystemDictionary15resolve_or_nullEP6Symbol6HandleS2_P6Thread
   fun:_ZN16SystemDictionary21resolve_super_or_failEP6SymbolS1_6HandleS2_bP6Thread
   fun:_ZN15ClassFileParser16parse_interfacesE18constantPoolHandlei6HandleS1_P6SymbolP6Thread
   fun:_ZN15ClassFileParser14parseClassFileEP6Symbol6HandleS2_11KlassHandleP13GrowableArrayIS2_ER13TempNewSymbolbP6Thread
}
{
   <insert_a_suppression_name_here>
   Memcheck:Leak
   match-leak-kinds: reachable
   fun:malloc
   fun:_ZN2os6mallocEmtPh
   fun:Unsafe_AllocateMemory
   obj:*
   obj:*
   obj:*
   obj:*
   obj:*
   obj:*
   obj:*
   obj:*
   obj:*
}
{
   <insert_a_suppression_name_here>
   Memcheck:Leak
   match-leak-kinds: reachable
   fun:malloc
   fun:_ZN2os6mallocEmtPh
   fun:_Z12AllocateHeapmtPhN17AllocFailStrategy13AllocFailEnumE
   fun:_ZN9HashtableIP12klassOopDescLt256EE9new_entryEjS1_
   fun:_ZN21LoaderConstraintTable9new_entryEjP6SymbolP12klassOopDescii
   fun:_ZN21LoaderConstraintTable9add_entryEP6SymbolP12klassOopDesc6HandleS3_S4_
   fun:_ZN16SystemDictionary21add_loader_constraintEP6Symbol6HandleS2_P6Thread
   fun:_ZN16SystemDictionary23check_signature_loadersEP6Symbol6HandleS2_bP6Thread
   fun:_ZN12LinkResolver14resolve_methodER12methodHandle11KlassHandleP6SymbolS4_S2_bP6Thread
   fun:_ZN12LinkResolver31linktime_resolve_special_methodER12methodHandle11KlassHandleP6SymbolS4_S2_bP6Thread
   fun:_ZN12LinkResolver20resolve_special_callER8CallInfo11KlassHandleP6SymbolS4_S2_bP6Thread
   fun:_ZN12LinkResolver21resolve_invokespecialER8CallInfo18constantPoolHandleiP6Thread
}
{
   <insert_a_suppression_name_here>
   Memcheck:Leak
   match-leak-kinds: possible
   fun:malloc
   fun:_ZN2os6mallocEmtPh
   fun:_Z12AllocateHeapmtPhN17AllocFailStrategy13AllocFailEnumE
   fun:_ZN9HashtableIP12klassOopDescLt256EE9new_entryEjS1_
   fun:_ZN21LoaderConstraintTable9new_entryEjP6SymbolP12klassOopDescii
   fun:_ZN21LoaderConstraintTable9add_entryEP6SymbolP12klassOopDesc6HandleS3_S4_
   fun:_ZN16SystemDictionary21add_loader_constraintEP6Symbol6HandleS2_P6Thread
   fun:_ZN16SystemDictionary23check_signature_loadersEP6Symbol6HandleS2_bP6Thread
   fun:_ZN12LinkResolver14resolve_methodER12methodHandle11KlassHandleP6SymbolS4_S2_bP6Thread
   fun:_ZN12LinkResolver30linktime_resolve_static_methodER12methodHandle11KlassHandleP6SymbolS4_S2_bP6Thread
   fun:_ZN12LinkResolver19resolve_static_callER8CallInfoR11KlassHandleP6SymbolS5_S2_bbP6Thread
   fun:_ZN12LinkResolver20resolve_invokestaticER8CallInfo18constantPoolHandleiP6Thread
}
{
   <insert_a_suppression_name_here>
   Memcheck:Leak
   match-leak-kinds: reachable
   fun:malloc
   fun:_ZN2os6mallocEmtPh
   fun:_ZN8CHeapObjILt1280EEnwEmPh
   fun:_ZN16GenCollectedHeap20create_cms_collectorEv
   fun:_ZN16GenCollectedHeap10initializeEv
   fun:_ZN8Universe15initialize_heapEv
   fun:_Z13universe_initv
   fun:_Z12init_globalsv
   fun:_ZN7Threads9create_vmEP14JavaVMInitArgsPb
   fun:JNI_CreateJavaVM
   fun:JavaMain
   fun:start_thread
}
{
   <insert_a_suppression_name_here>
   Memcheck:Leak
   match-leak-kinds: reachable
   fun:malloc
   fun:_ZN2os6mallocEmtPh
   fun:_Z12AllocateHeapmtPhN17AllocFailStrategy13AllocFailEnumE
   fun:_ZN21AdapterHandlerLibrary10initializeEv
   fun:_ZN21AdapterHandlerLibrary11get_adapterE12methodHandle
   fun:_ZN13methodOopDesc13make_adaptersE12methodHandleP6Thread
   fun:_ZN8Rewriter17relocate_and_linkE19instanceKlassHandle14objArrayHandleP6Thread
   fun:_ZN13instanceKlass15link_class_implE19instanceKlassHandlebP6Thread
   fun:_ZN13instanceKlass15link_class_implE19instanceKlassHandlebP6Thread
   fun:_ZN13instanceKlass15link_class_implE19instanceKlassHandlebP6Thread
   fun:_ZN13instanceKlass15link_class_implE19instanceKlassHandlebP6Thread
   fun:_ZN13instanceKlass18link_class_or_failEP6Thread
}
{
   <insert_a_suppression_name_here>
   Memcheck:Leak
   match-leak-kinds: reachable
   fun:malloc
   fun:_ZN2os6mallocEmtPh
   fun:_ZN8CHeapObjILt1792EEnwEmPh
   fun:_ZN14JNIHandleBlock14allocate_blockEP6Thread
   fun:_ZN10JavaThread3runEv
   fun:_ZL10java_startP6Thread
   fun:start_thread
   fun:clone
}
{
   <insert_a_suppression_name_here>
   Memcheck:Leak
   match-leak-kinds: possible
   fun:malloc
   fun:_ZN2os6mallocEmtPh
   fun:_ZN6Thread8allocateEmbt
   fun:_ZN8VMThread6createEv
   fun:_ZN7Threads9create_vmEP14JavaVMInitArgsPb
   fun:JNI_CreateJavaVM
   fun:JavaMain
   fun:start_thread
   fun:clone
}
{
   <insert_a_suppression_name_here>
   Memcheck:Leak
   match-leak-kinds: possible
   fun:malloc
   fun:_ZN2os6mallocEmtPh
   fun:_ZN6Thread8allocateEmbt
   fun:_ZN25ConcurrentMarkSweepThread5startEP12CMSCollector
   fun:_ZN12CMSCollectorC1EP29ConcurrentMarkSweepGenerationS1_P11CardTableRSP25ConcurrentMarkSweepPolicy
   fun:_ZN16GenCollectedHeap20create_cms_collectorEv
   fun:_ZN16GenCollectedHeap10initializeEv
   fun:_ZN8Universe15initialize_heapEv
   fun:_Z13universe_initv
   fun:_Z12init_globalsv
   fun:_ZN7Threads9create_vmEP14JavaVMInitArgsPb
   fun:JNI_CreateJavaVM
}
{
   <insert_a_suppression_name_here>
   Memcheck:Leak
   match-leak-kinds: possible
   fun:malloc
   fun:_ZN2os6mallocEmtPh
   fun:_ZN6Thread8allocateEmbt
   fun:_ZN8WorkGang15allocate_workerEj
   fun:_ZN8WorkGang18initialize_workersEv
   fun:_ZN16GenCollectedHeapC1EP18GenCollectorPolicy
   fun:_ZN8Universe15initialize_heapEv
   fun:_Z13universe_initv
   fun:_Z12init_globalsv
   fun:_ZN7Threads9create_vmEP14JavaVMInitArgsPb
   fun:JNI_CreateJavaVM
   fun:JavaMain
}
{
   <insert_a_suppression_name_here>
   Memcheck:Leak
   match-leak-kinds: reachable
   fun:malloc
   fun:_Znwm
   fun:_Znam
   fun:_ZN6Events4initEv
   fun:_Z15vm_init_globalsv
   fun:_ZN7Threads9create_vmEP14JavaVMInitArgsPb
   fun:JNI_CreateJavaVM
   fun:JavaMain
   fun:start_thread
   fun:clone
}
{
   <insert_a_suppression_name_here>
   Memcheck:Leak
   match-leak-kinds: reachable
   fun:malloc
   fun:_Znwm
   fun:_Znam
   fun:_Z18compileBroker_initv
   fun:_Z12init_globalsv
   fun:_ZN7Threads9create_vmEP14JavaVMInitArgsPb
   fun:JNI_CreateJavaVM
   fun:JavaMain
   fun:start_thread
   fun:clone
}
{
   <insert_a_suppression_name_here>
   Memcheck:Leak
   match-leak-kinds: reachable
   fun:malloc
   fun:_ZN2os6mallocEmtPh
   fun:_ZN8CHeapObjILt256EEnwEmPh
   fun:_ZN13instanceKlass8mask_forE12methodHandleiP17InterpreterOopMap
   fun:_ZN5frame19oops_interpreted_doEP10OopClosurePK11RegisterMapb
   fun:_ZN10JavaThread7oops_doEP10OopClosureP15CodeBlobClosure
   fun:_ZN7Threads25possibly_parallel_oops_doEP10OopClosureP15CodeBlobClosure
   fun:_ZN10SharedHeap20process_strong_rootsEbbNS_14ScanningOptionEP10OopClosureP15CodeBlobClosureP16OopsInGenClosureb
   fun:_ZN16GenCollectedHeap24gen_process_strong_rootsEibbbN10SharedHeap14ScanningOptionEP16OopsInGenClosurebS3_
   fun:_ZN12GenMarkSweep17mark_sweep_phase1Eib
   fun:_ZN12GenMarkSweep19invoke_at_safepointEiP18ReferenceProcessorb
   fun:_ZN12CMSCollector18do_compaction_workEb
}
{
   <insert_a_suppression_name_here>
   Memcheck:Leak
   match-leak-kinds: possible
   fun:malloc
   fun:_ZN2os6mallocEmtPh
   fun:_ZN6Thread8allocateEmbt
   fun:_ZN2os11signal_initEv
   fun:_ZN7Threads9create_vmEP14JavaVMInitArgsPb
   fun:JNI_CreateJavaVM
   fun:JavaMain
   fun:start_thread
   fun:clone
}
{
   <insert_a_suppression_name_here>
   Memcheck:Leak
   match-leak-kinds: possible
   fun:malloc
   fun:_ZN2os6mallocEmtPh
   fun:_ZN6Thread8allocateEmbt
   fun:_ZN13ServiceThread10initializeEv
   fun:_ZN10Management10initializeEP6Thread
   fun:_ZN7Threads9create_vmEP14JavaVMInitArgsPb
   fun:JNI_CreateJavaVM
   fun:JavaMain
   fun:start_thread
   fun:clone
}
{
   <insert_a_suppression_name_here>
   Memcheck:Leak
   match-leak-kinds: possible
   fun:malloc
   fun:_ZN2os6mallocEmtPh
   fun:_ZN6Thread8allocateEmbt
   fun:JVM_StartThread
   obj:*
   obj:*
   obj:*
   obj:*
   obj:*
   obj:*
   fun:_ZN9JavaCalls11call_helperEP9JavaValueP12methodHandleP17JavaCallArgumentsP6Thread
   fun:_ZN9JavaCalls4callEP9JavaValue12methodHandleP17JavaCallArgumentsP6Thread
}
{
   <insert_a_suppression_name_here>
   Memcheck:Leak
   match-leak-kinds: possible
   fun:malloc
   fun:_ZN2os6mallocEmtPh
   fun:_ZN6Thread8allocateEmbt
   fun:JVM_StartThread
   obj:*
   obj:*
   obj:*
   obj:*
   obj:*
   obj:*
   obj:*
   obj:*
}
{
   <insert_a_suppression_name_here>
   Memcheck:Leak
   match-leak-kinds: possible
   fun:malloc
   fun:_ZN2os6mallocEmtPh
   fun:_ZN6Thread8allocateEmbt
   fun:JVM_StartThread
   obj:*
   obj:*
   obj:*
   obj:*
   obj:*
   fun:_ZN9JavaCalls11call_helperEP9JavaValueP12methodHandleP17JavaCallArgumentsP6Thread
   fun:_ZN9JavaCalls4callEP9JavaValue12methodHandleP17JavaCallArgumentsP6Thread
   fun:JVM_DoPrivileged
}
{
   <insert_a_suppression_name_here>
   Memcheck:Leak
   match-leak-kinds: possible
   fun:malloc
   fun:_ZN2os6mallocEmtPh
   fun:_ZN6Thread8allocateEmbt
   fun:attach_current_thread
   fun:jni_DestroyJavaVM
   fun:JavaMain
   fun:start_thread
   fun:clone
}
{
   <insert_a_suppression_name_here>
   Memcheck:Leak
   match-leak-kinds: reachable
   fun:calloc
   fun:_dl_check_map_versions
   fun:dl_open_worker
   fun:_dl_catch_exception
   fun:_dl_open
   fun:dlopen_doit
   fun:_dl_catch_exception
   fun:_dl_catch_error
   fun:_dlerror_run
   fun:dlopen@@GLIBC_2.2.5
   fun:_ZN2os8dll_loadEPKcPci
   fun:JVM_LoadLibrary
}
{
   <insert_a_suppression_name_here>
   Memcheck:Leak
   match-leak-kinds: possible
   fun:malloc
   fun:_ZN2os6mallocEmtPh
   fun:_ZN6Thread8allocateEmbt
   fun:_ZN21SurrogateLockerThread4makeEP6Thread
   fun:_ZN25ConcurrentMarkSweepThread25makeSurrogateLockerThreadEP6Thread
   fun:_ZN7Threads9create_vmEP14JavaVMInitArgsPb
   fun:JNI_CreateJavaVM
   fun:JavaMain
   fun:start_thread
   fun:clone
}
{
   <insert_a_suppression_name_here>
   Memcheck:Leak
   match-leak-kinds: reachable
   fun:calloc
   fun:do_lookup_unique
   fun:do_lookup_x
   fun:_dl_lookup_symbol_x
   fun:elf_machine_rela
   fun:elf_dynamic_do_Rela
   fun:_dl_relocate_object
   fun:dl_open_worker
   fun:_dl_catch_exception
   fun:_dl_open
   fun:dlopen_doit
   fun:_dl_catch_exception
   fun:_dl_catch_error
   fun:_dlerror_run
   fun:dlopen@@GLIBC_2.2.5
}
{
   <insert_a_suppression_name_here>
   Memcheck:Leak
   match-leak-kinds: reachable
   fun:malloc
   fun:_ZN2os6mallocEmtPh
   fun:_Z12AllocateHeapmtPhN17AllocFailStrategy13AllocFailEnumE
   fun:_ZN14BasicHashtableILt1024EE9new_entryEj
   fun:_ZN21AdapterHandlerLibrary9new_entryEP18AdapterFingerPrintPhS2_S2_
   fun:_ZN21AdapterHandlerLibrary10initializeEv
   fun:_ZN21AdapterHandlerLibrary11get_adapterE12methodHandle
   fun:_ZN13methodOopDesc13make_adaptersE12methodHandleP6Thread
   fun:_ZN8Rewriter17relocate_and_linkE19instanceKlassHandle14objArrayHandleP6Thread
   fun:_ZN13instanceKlass15link_class_implE19instanceKlassHandlebP6Thread
   fun:_ZN13instanceKlass15link_class_implE19instanceKlassHandlebP6Thread
   fun:_ZN13instanceKlass15link_class_implE19instanceKlassHandlebP6Thread
}
{
   <insert_a_suppression_name_here>
   Memcheck:Leak
   match-leak-kinds: possible
   fun:malloc
   fun:_ZN2os6mallocEmtPh
   fun:_ZN6Thread8allocateEmbt
   fun:JVM_StartThread
   obj:*
   obj:*
   obj:*
   obj:*
   fun:_ZN9JavaCalls11call_helperEP9JavaValueP12methodHandleP17JavaCallArgumentsP6Thread
   fun:_ZN9JavaCalls4callEP9JavaValue12methodHandleP17JavaCallArgumentsP6Thread
   fun:_ZN13instanceKlass22call_class_initializerEP6Thread
   fun:_ZN13instanceKlass15initialize_implE19instanceKlassHandleP6Thread
}
{
   <insert_a_suppression_name_here>
   Memcheck:Leak
   match-leak-kinds: possible
   fun:malloc
   fun:_ZN2os6mallocEmtPh
   fun:_ZN6Thread8allocateEmbt
   fun:_ZN13CompileBroker20make_compiler_threadEPKcP12CompileQueueP16CompilerCountersP6Thread
   fun:_ZN13CompileBroker21init_compiler_threadsEii
   fun:_ZN13CompileBroker16compilation_initEv
   fun:_ZN7Threads9create_vmEP14JavaVMInitArgsPb
   fun:JNI_CreateJavaVM
   fun:JavaMain
   fun:start_thread
   fun:clone
}
{
   <insert_a_suppression_name_here>
   Memcheck:Leak
   match-leak-kinds: reachable
   fun:malloc
   fun:readCEN
   fun:ZIP_Put_In_Cache0
   fun:Java_java_util_zip_ZipFile_open
   obj:*
   obj:*
   obj:*
   obj:*
   obj:*
   obj:*
   obj:*
   obj:*
}
{
   <insert_a_suppression_name_here>
   Memcheck:Leak
   match-leak-kinds: reachable
   fun:malloc
   fun:inflateInit2_
   fun:Java_java_util_zip_Inflater_init
   obj:*
   obj:*
   obj:*
   obj:*
   obj:*
   obj:*
   obj:*
   obj:*
   obj:*
}
{
   <insert_a_suppression_name_here>
   Memcheck:Leak
   match-leak-kinds: definite
   fun:malloc
   fun:_ZN2os6mallocEmtPh
   fun:_ZN6Thread8allocateEmbt
   fun:_ZN13WatcherThread5startEv
   fun:_ZN7Threads9create_vmEP14JavaVMInitArgsPb
   fun:JNI_CreateJavaVM
   fun:JavaMain
   fun:start_thread
   fun:clone
}
{
   <insert_a_suppression_name_here>
   Memcheck:Leak
   match-leak-kinds: reachable
   fun:malloc
   fun:_ZN2os6mallocEmtPh
   fun:_ZN10DictionaryC1Ei
   fun:_ZN16SystemDictionary10initializeEP6Thread
   fun:_ZN8Universe7genesisEP6Thread
   fun:_Z14universe2_initv
   fun:_Z12init_globalsv
   fun:_ZN7Threads9create_vmEP14JavaVMInitArgsPb
   fun:JNI_CreateJavaVM
   fun:JavaMain
   fun:start_thread
   fun:clone
}
{
   <insert_a_suppression_name_here>
   Memcheck:Leak
   match-leak-kinds: reachable
   fun:malloc
   fun:_ZN2os6mallocEmtPh
   fun:_ZN16PlaceholderTableC1Ei
   fun:_ZN16SystemDictionary10initializeEP6Thread
   fun:_ZN8Universe7genesisEP6Thread
   fun:_Z14universe2_initv
   fun:_Z12init_globalsv
   fun:_ZN7Threads9create_vmEP14JavaVMInitArgsPb
   fun:JNI_CreateJavaVM
   fun:JavaMain
   fun:start_thread
   fun:clone
}
{
   <insert_a_suppression_name_here>
   Memcheck:Leak
   match-leak-kinds: reachable
   fun:malloc
   fun:_ZN2os6mallocEmtPh
   fun:_Z12AllocateHeapmtPhN17AllocFailStrategy13AllocFailEnumE
   fun:_ZN9HashtableIP6SymbolLt2304EE9new_entryEjS1_
   fun:_ZN11SymbolTable9basic_addEiPhijbP6Thread
   fun:_ZN11SymbolTable20new_permanent_symbolEPKcP6Thread
   fun:_ZN14typeArrayKlass12create_klassE9BasicTypeiPKcP6Thread
   fun:_ZN8Universe7genesisEP6Thread
   fun:_Z14universe2_initv
   fun:_Z12init_globalsv
   fun:_ZN7Threads9create_vmEP14JavaVMInitArgsPb
   fun:JNI_CreateJavaVM
}
{
   <insert_a_suppression_name_here>
   Memcheck:Leak
   match-leak-kinds: reachable
   fun:malloc
   fun:_ZN2os6mallocEmtPh
   fun:_Z12AllocateHeapmtPhN17AllocFailStrategy13AllocFailEnumE
   fun:_ZN9HashtableIP6SymbolLt2304EE9new_entryEjS1_
   fun:_ZN11SymbolTable9basic_addEiPhijbP6Thread
   fun:_ZN11SymbolTable20new_permanent_symbolEPKcP6Thread
   fun:_ZN9vmSymbols10initializeEP6Thread
   fun:_ZN8Universe7genesisEP6Thread
   fun:_Z14universe2_initv
   fun:_Z12init_globalsv
   fun:_ZN7Threads9create_vmEP14JavaVMInitArgsPb
   fun:JNI_CreateJavaVM
}
{
   <insert_a_suppression_name_here>
   Memcheck:Leak
   match-leak-kinds: reachable
   fun:malloc
   fun:_ZN2os6mallocEmtPh
   fun:_Z12AllocateHeapmtPhN17AllocFailStrategy13AllocFailEnumE
   fun:_ZN9HashtableIP7oopDescLt2304EE9new_entryEjS1_
   fun:_ZN11StringTable9basic_addEi6HandlePtijP6Thread
   fun:_ZN11StringTable6internE6HandlePtiP6Thread
   fun:_ZN11StringTable6internEP6SymbolP6Thread
   fun:_ZN19constantPoolOopDesc14string_at_implE18constantPoolHandleiP6Thread
   fun:_ZN18InterpreterRuntime3ldcEP10JavaThreadb
   obj:*
   obj:*
   obj:*
}
{
   <insert_a_suppression_name_here>
   Memcheck:Leak
   match-leak-kinds: reachable
   fun:malloc
   fun:_ZN2os6mallocEmtPh
   fun:_Z12AllocateHeapmtPhN17AllocFailStrategy13AllocFailEnumE
   fun:_ZN9HashtableIP7oopDescLt2304EE9new_entryEjS1_
   fun:_ZN11StringTable9basic_addEi6HandlePtijP6Thread
   fun:_ZN11StringTable6internE6HandlePtiP6Thread
   fun:_ZN11StringTable6internEP6SymbolP6Thread
   fun:_ZN19constantPoolOopDesc14string_at_implE18constantPoolHandleiP6Thread
   fun:_ZN18InterpreterRuntime3ldcEP10JavaThreadb
   obj:*
   obj:*
   fun:_ZN9JavaCalls11call_helperEP9JavaValueP12methodHandleP17JavaCallArgumentsP6Thread
}
{
   <insert_a_suppression_name_here>
   Memcheck:Leak
   match-leak-kinds: reachable
   fun:malloc
   fun:_ZN2os6mallocEmtPh
   fun:_Z12AllocateHeapmtPhN17AllocFailStrategy13AllocFailEnumE
   fun:_ZN9HashtableIP7oopDescLt2304EE9new_entryEjS1_
   fun:_ZN11StringTable9basic_addEi6HandlePtijP6Thread
   fun:_ZN11StringTable6internE6HandlePtiP6Thread
   fun:_ZN11StringTable6internEP6SymbolP6Thread
   fun:_ZN10Reflection10new_methodE12methodHandlebbP6Thread
   fun:JVM_GetClassDeclaredMethods
   obj:*
   obj:*
   obj:*
}
{
   <insert_a_suppression_name_here>
   Memcheck:Leak
   match-leak-kinds: reachable
   fun:malloc
   fun:_ZN2os6mallocEmtPh
   fun:_Z12AllocateHeapmtPhN17AllocFailStrategy13AllocFailEnumE
   fun:_ZN9HashtableIP7oopDescLt2304EE9new_entryEjS1_
   fun:_ZN11StringTable9basic_addEi6HandlePtijP6Thread
   fun:_ZN11StringTable6internE6HandlePtiP6Thread
   fun:_ZN11StringTable6internEP7oopDescP6Thread
   fun:JVM_InternString
   obj:*
   obj:*
   obj:*
   obj:*
}
{
   <insert_a_suppression_name_here>
   Memcheck:Leak
   match-leak-kinds: reachable
   fun:malloc
   fun:_ZN2os6mallocEmtPh
   fun:_Z12AllocateHeapmtPhN17AllocFailStrategy13AllocFailEnumE
   fun:_ZN14BasicHashtableILt1024EE9new_entryEj
   fun:_ZN21AdapterHandlerLibrary9new_entryEP18AdapterFingerPrintPhS2_S2_
   fun:_ZN13SharedRuntime23generate_i2c2i_adaptersEP14MacroAssembleriiPK9BasicTypePK9VMRegPairP18AdapterFingerPrint
   fun:_ZN21AdapterHandlerLibrary11get_adapterE12methodHandle
   fun:_ZN13methodOopDesc13make_adaptersE12methodHandleP6Thread
   fun:_ZN8Rewriter17relocate_and_linkE19instanceKlassHandle14objArrayHandleP6Thread
   fun:_ZN13instanceKlass15link_class_implE19instanceKlassHandlebP6Thread
   fun:_ZN13instanceKlass15initialize_implE19instanceKlassHandleP6Thread
   fun:_ZN13instanceKlass10initializeEP6Thread
}
{
   <insert_a_suppression_name_here>
   Memcheck:Leak
   match-leak-kinds: reachable
   fun:calloc
   fun:_dl_new_object
   fun:_dl_map_object_from_fd
   fun:_dl_map_object
   fun:dl_open_worker
   fun:_dl_catch_exception
   fun:_dl_open
   fun:dlopen_doit
   fun:_dl_catch_exception
   fun:_dl_catch_error
   fun:_dlerror_run
   fun:dlopen@@GLIBC_2.2.5
}
{
   <insert_a_suppression_name_here>
   Memcheck:Leak
   match-leak-kinds: reachable
   fun:calloc
   fun:_dl_new_object
   fun:_dl_map_object_from_fd
   fun:_dl_map_object
   fun:openaux
   fun:_dl_catch_exception
   fun:_dl_map_object_deps
   fun:dl_open_worker
   fun:_dl_catch_exception
   fun:_dl_open
   fun:dlopen_doit
   fun:_dl_catch_exception
}
{
   <insert_a_suppression_name_here>
   Memcheck:Leak
   match-leak-kinds: reachable
   fun:malloc
   fun:_ZN2os6mallocEmtPh
   fun:_ZN9ChunkPool8allocateEmN17AllocFailStrategy13AllocFailEnumE
   fun:_ZN5ArenaC2Em
   fun:_ZN7MatcherC1ER9Node_List
   fun:_ZN7Compile8Code_GenEv
   fun:_ZN7CompileC1EP5ciEnvPFPK8TypeFuncvEPhPKcibbb
   fun:_ZN11OptoRuntime13generate_stubEP5ciEnvPFPK8TypeFuncvEPhPKcibbb
   fun:_ZN11OptoRuntime8generateEP5ciEnv
   fun:_ZN10C2Compiler18initialize_runtimeEv
   fun:_ZN16AbstractCompiler19initialize_runtimesEPFvvEPVi
   fun:_ZN10C2Compiler10initializeEv
}
{
   <insert_a_suppression_name_here>
   Memcheck:Leak
   match-leak-kinds: reachable
   fun:malloc
   fun:_ZN2os6mallocEmtPh
   fun:_ZN9ChunkPool8allocateEmN17AllocFailStrategy13AllocFailEnumE
   fun:_ZN5ArenaC2Em
   fun:_ZN7MatcherC1ER9Node_List
   fun:_ZN7Compile8Code_GenEv
   fun:_ZN7CompileC1EP5ciEnvP10C2CompilerP8ciMethodibb
   fun:_ZN10C2Compiler14compile_methodEP5ciEnvP8ciMethodi
   fun:_ZN13CompileBroker25invoke_compiler_on_methodEP11CompileTask
   fun:_ZN13CompileBroker20compiler_thread_loopEv
   fun:_ZN10JavaThread17thread_main_innerEv
   fun:_ZN10JavaThread3runEv
}
{
   <insert_a_suppression_name_here>
   Memcheck:Leak
   match-leak-kinds: reachable
   fun:malloc
   fun:_Znwm
   fun:_Znam
   fun:_ZN13CollectedHeapC2Ev
   fun:_ZN10SharedHeapC2EP15CollectorPolicy
   fun:_ZN16GenCollectedHeapC1EP18GenCollectorPolicy
   fun:_ZN8Universe15initialize_heapEv
   fun:_Z13universe_initv
   fun:_Z12init_globalsv
   fun:_ZN7Threads9create_vmEP14JavaVMInitArgsPb
   fun:JNI_CreateJavaVM
   fun:JavaMain
}
{
   <insert_a_suppression_name_here>
   Memcheck:Leak
   match-leak-kinds: reachable
   fun:malloc
   fun:_ZN2os6mallocEmtPh
   fun:_ZN8CodeBlob12set_oop_mapsEP9OopMapSet
   fun:_ZN8CodeBlobC2EPKcP10CodeBufferiiiiP9OopMapSet
   fun:_ZN7nmethodC1EP13methodOopDesciiiP11CodeOffsetsiP24DebugInformationRecorderP12DependenciesP10CodeBufferiP9OopMapSetP21ExceptionHandlerTableP22ImplicitExceptionTableP16AbstractCompileri
   fun:_ZN7nmethod11new_nmethodE12methodHandleiiP11CodeOffsetsiP24DebugInformationRecorderP12DependenciesP10CodeBufferiP9OopMapSetP21ExceptionHandlerTableP22ImplicitExceptionTableP16AbstractCompileri
   fun:_ZN5ciEnv15register_methodEP8ciMethodiP11CodeOffsetsiP10CodeBufferiP9OopMapSetP21ExceptionHandlerTableP22ImplicitExceptionTableP16AbstractCompileribb
   fun:_ZN7CompileC1EP5ciEnvP10C2CompilerP8ciMethodibb
   fun:_ZN10C2Compiler14compile_methodEP5ciEnvP8ciMethodi
   fun:_ZN13CompileBroker25invoke_compiler_on_methodEP11CompileTask
   fun:_ZN13CompileBroker20compiler_thread_loopEv
   fun:_ZN10JavaThread17thread_main_innerEv
}
{
   <insert_a_suppression_name_here>
   Memcheck:Leak
   match-leak-kinds: reachable
   fun:malloc
   fun:_ZN2os6mallocEmtPh
   fun:_Z12AllocateHeapmtPhN17AllocFailStrategy13AllocFailEnumE
   fun:_ZN9HashtableIP12klassOopDescLt256EE9new_entryEjS1_
   fun:_ZN10Dictionary9add_klassEP6Symbol6Handle11KlassHandle
   fun:_ZN16SystemDictionary17update_dictionaryEijij19instanceKlassHandle6HandleP6Thread
   fun:_ZN16SystemDictionary21define_instance_classE19instanceKlassHandleP6Thread
   fun:_ZN16SystemDictionary29find_or_define_instance_classEP6Symbol6Handle19instanceKlassHandleP6Thread
   fun:_ZN16SystemDictionary19load_instance_classEP6Symbol6HandleP6Thread
   fun:_ZN16SystemDictionary30resolve_instance_class_or_nullEP6Symbol6HandleS2_P6Thread
   fun:_ZN16SystemDictionary15resolve_or_nullEP6Symbol6HandleS2_P6Thread
   fun:_ZN16SystemDictionary15resolve_or_failEP6Symbol6HandleS2_bP6Thread
}
{
   <insert_a_suppression_name_here>
   Memcheck:Leak
   match-leak-kinds: reachable
   fun:malloc
   fun:_ZN2os6mallocEmtPh
   fun:_Z12AllocateHeapmtPhN17AllocFailStrategy13AllocFailEnumE
   fun:_ZN9HashtableIP12klassOopDescLt256EE9new_entryEjS1_
   fun:_ZN10Dictionary9add_klassEP6Symbol6Handle11KlassHandle
   fun:_ZN16SystemDictionary17update_dictionaryEijij19instanceKlassHandle6HandleP6Thread
   fun:_ZN16SystemDictionary30resolve_instance_class_or_nullEP6Symbol6HandleS2_P6Thread
   fun:_ZN16SystemDictionary15resolve_or_nullEP6Symbol6HandleS2_P6Thread
   fun:_ZN16SystemDictionary15resolve_or_failEP6Symbol6HandleS2_bP6Thread
   fun:_Z28find_class_from_class_loaderP7JNIEnv_P6Symbolh6HandleS3_hP6Thread
   fun:JVM_FindClassFromClass
   fun:load_class_global
}
{
   <insert_a_suppression_name_here>
   Memcheck:Leak
   match-leak-kinds: reachable
   fun:malloc
   fun:_ZN2os6mallocEmtPh
   fun:_Z12AllocateHeapmtPhN17AllocFailStrategy13AllocFailEnumE
   fun:_ZN9HashtableIP7oopDescLt2304EE9new_entryEjS1_
   fun:_ZN11StringTable9basic_addEi6HandlePtijP6Thread
   fun:_ZN11StringTable6internE6HandlePtiP6Thread
   fun:_ZN11StringTable6internEP6SymbolP6Thread
   fun:_ZN19constantPoolOopDesc14string_at_implE18constantPoolHandleiP6Thread
   fun:_ZL23initialize_static_fieldP15fieldDescriptorP6Thread
   fun:_ZN13instanceKlass27do_local_static_fields_implE19instanceKlassHandlePFvP15fieldDescriptorP6ThreadES4_
   fun:_ZN15java_lang_Class13create_mirrorE11KlassHandle6HandleP6Thread
   fun:_ZN15ClassFileParser14parseClassFileEP6Symbol6HandleS2_11KlassHandleP13GrowableArrayIS2_ER13TempNewSymbolbP6Thread
}
{
   <insert_a_suppression_name_here>
   Memcheck:Leak
   match-leak-kinds: possible
   fun:malloc
   fun:_ZN2os6mallocEmtPh
   fun:_Z12AllocateHeapmtPhN17AllocFailStrategy13AllocFailEnumE
   fun:_ZN9HashtableIP12klassOopDescLt256EE9new_entryEjS1_
   fun:_ZN10Dictionary9add_klassEP6Symbol6Handle11KlassHandle
   fun:_ZN16SystemDictionary17update_dictionaryEijij19instanceKlassHandle6HandleP6Thread
   fun:_ZN16SystemDictionary21define_instance_classE19instanceKlassHandleP6Thread
   fun:_ZN16SystemDictionary29find_or_define_instance_classEP6Symbol6Handle19instanceKlassHandleP6Thread
   fun:_ZN16SystemDictionary19load_instance_classEP6Symbol6HandleP6Thread
   fun:_ZN16SystemDictionary30resolve_instance_class_or_nullEP6Symbol6HandleS2_P6Thread
   fun:_ZN16SystemDictionary15resolve_or_nullEP6Symbol6HandleS2_P6Thread
   fun:_ZN16SystemDictionary28initialize_preloaded_classesEP6Thread
}
{
   <insert_a_suppression_name_here>
   Memcheck:Leak
   match-leak-kinds: possible
   fun:malloc
   fun:_ZN2os6mallocEmtPh
   fun:_Z12AllocateHeapmtPhN17AllocFailStrategy13AllocFailEnumE
   fun:_ZN9HashtableIP12klassOopDescLt256EE9new_entryEjS1_
   fun:_ZN10Dictionary9add_klassEP6Symbol6Handle11KlassHandle
   fun:_ZN16SystemDictionary17update_dictionaryEijij19instanceKlassHandle6HandleP6Thread
   fun:_ZN16SystemDictionary21define_instance_classE19instanceKlassHandleP6Thread
   fun:_ZN16SystemDictionary29find_or_define_instance_classEP6Symbol6Handle19instanceKlassHandleP6Thread
   fun:_ZN16SystemDictionary19load_instance_classEP6Symbol6HandleP6Thread
   fun:_ZN16SystemDictionary30resolve_instance_class_or_nullEP6Symbol6HandleS2_P6Thread
   fun:_ZN16SystemDictionary15resolve_or_nullEP6Symbol6HandleS2_P6Thread
   fun:_ZN16SystemDictionary15resolve_or_failEP6Symbol6HandleS2_bP6Thread
}
{
   <insert_a_suppression_name_here>
   Memcheck:Leak
   match-leak-kinds: reachable
   fun:malloc
   fun:_ZN2os6mallocEmtPh
   fun:_ZN6SymbolnwEmiP6Thread
   fun:_ZN11SymbolTable9basic_addE6Handle18constantPoolHandleiPPKcPiS5_PjP6Thread
   fun:_ZN11SymbolTable3addE6Handle18constantPoolHandleiPPKcPiS5_PjP6Thread
   fun:_ZN15ClassFileParser27parse_constant_pool_entriesE6Handle18constantPoolHandleiP6Thread
   fun:_ZN15ClassFileParser19parse_constant_poolE6HandleP6Thread
   fun:_ZN15ClassFileParser14parseClassFileEP6Symbol6HandleS2_11KlassHandleP13GrowableArrayIS2_ER13TempNewSymbolbP6Thread
   fun:_ZN16SystemDictionary19resolve_from_streamEP6Symbol6HandleS2_P15ClassFileStreambP6Thread
   fun:_ZL23jvm_define_class_commonP7JNIEnv_PKcP8_jobjectPKaiS4_S2_hP6Thread
   fun:JVM_DefineClassWithSource
   fun:Java_java_lang_ClassLoader_defineClass1
}
{
   <insert_a_suppression_name_here>
   Memcheck:Leak
   match-leak-kinds: reachable
   fun:malloc
   fun:_Znwm
   fun:_Znam
   fun:_ZN18ObjectSynchronizer7omAllocEP6Thread
   fun:_ZN18ObjectSynchronizer7inflateEP6ThreadP7oopDesc
   fun:_ZN18ObjectSynchronizer4waitE6HandlelP6Thread
   fun:JVM_MonitorWait
   obj:*
   obj:*
   obj:*
   obj:*
   fun:_ZN9JavaCalls11call_helperEP9JavaValueP12methodHandleP17JavaCallArgumentsP6Thread
}
{
   <insert_a_suppression_name_here>
   Memcheck:Leak
   match-leak-kinds: reachable
   fun:malloc
   fun:_ZN2os6mallocEmtPh
   fun:_ZN11OopMapCacheC1Ev
   fun:_ZN13instanceKlass8mask_forE12methodHandleiP17InterpreterOopMap
   fun:_ZN5frame19oops_interpreted_doEP10OopClosurePK11RegisterMapb
   fun:_ZN10JavaThread7oops_doEP10OopClosureP15CodeBlobClosure
   fun:_ZN7Threads25possibly_parallel_oops_doEP10OopClosureP15CodeBlobClosure
   fun:_ZN10SharedHeap20process_strong_rootsEbbNS_14ScanningOptionEP10OopClosureP15CodeBlobClosureP16OopsInGenClosureb
   fun:_ZN16GenCollectedHeap24gen_process_strong_rootsEibbbN10SharedHeap14ScanningOptionEP16OopsInGenClosurebS3_
   fun:_ZN12GenMarkSweep17mark_sweep_phase1Eib
   fun:_ZN12GenMarkSweep19invoke_at_safepointEiP18ReferenceProcessorb
   fun:_ZN12CMSCollector18do_compaction_workEb
}
{
   <insert_a_suppression_name_here>
   Memcheck:Leak
   match-leak-kinds: reachable
   fun:malloc
   fun:_ZN2os6mallocEmtPh
   fun:_ZN8CHeapObjILt1792EEnwEmPh
   fun:_ZN24CompactibleFreeListSpaceC1EP22BlockOffsetSharedArray9MemRegionbN19FreeBlockDictionaryI9FreeChunkE16DictionaryChoiceE
   fun:_ZN29ConcurrentMarkSweepGenerationC1E13ReservedSpacemiP11CardTableRSbN19FreeBlockDictionaryI9FreeChunkE16DictionaryChoiceE
   fun:_ZN14GenerationSpec4initE13ReservedSpaceiP9GenRemSet
   fun:_ZN16GenCollectedHeap10initializeEv
   fun:_ZN8Universe15initialize_heapEv
   fun:_Z13universe_initv
   fun:_Z12init_globalsv
   fun:_ZN7Threads9create_vmEP14JavaVMInitArgsPb
   fun:JNI_CreateJavaVM
}
{
   <insert_a_suppression_name_here>
   Memcheck:Leak
   match-leak-kinds: reachable
   fun:malloc
   fun:_ZN2os6mallocEmtPh
   fun:_ZN8CHeapObjILt1792EEnwEmPh
   fun:_ZN24CompactibleFreeListSpaceC1EP22BlockOffsetSharedArray9MemRegionbN19FreeBlockDictionaryI9FreeChunkE16DictionaryChoiceE
   fun:_ZN29ConcurrentMarkSweepGenerationC2E13ReservedSpacemiP11CardTableRSbN19FreeBlockDictionaryI9FreeChunkE16DictionaryChoiceE
   fun:_ZN10CMSPermGenC1E13ReservedSpacemP11CardTableRSN19FreeBlockDictionaryI9FreeChunkE16DictionaryChoiceE
   fun:_ZN23PermanentGenerationSpec4initE13ReservedSpacemP9GenRemSet
   fun:_ZN16GenCollectedHeap10initializeEv
   fun:_ZN8Universe15initialize_heapEv
   fun:_Z13universe_initv
   fun:_Z12init_globalsv
   fun:_ZN7Threads9create_vmEP14JavaVMInitArgsPb
}
{
   <insert_a_suppression_name_here>
   Memcheck:Leak
   match-leak-kinds: reachable
   fun:malloc
   fun:_ZN2os6mallocEmtPh
   fun:_ZN9ChunkPool8allocateEmN17AllocFailStrategy13AllocFailEnumE
   fun:_ZN5Arena4growEmN17AllocFailStrategy13AllocFailEnumE
   fun:_ZN7UNICODE7as_utf8EPti
   fun:_ZN11StatSampler19get_system_propertyEPKcP6Thread
   fun:_ZN11StatSampler38create_system_property_instrumentationEP6Thread
   fun:_ZN11StatSampler20create_misc_perfdataEv
   fun:_ZN11StatSampler10initializeEv
   fun:_ZN11StatSampler6engageEv
   fun:_ZN7Threads9create_vmEP14JavaVMInitArgsPb
   fun:JNI_CreateJavaVM
}
{
   <insert_a_suppression_name_here>
   Memcheck:Leak
   match-leak-kinds: reachable
   fun:malloc
   fun:_ZN2os6mallocEmtPh
   fun:_ZN9ChunkPool8allocateEmN17AllocFailStrategy13AllocFailEnumE
   fun:_ZN5Arena4growEmN17AllocFailStrategy13AllocFailEnumE
   fun:_ZN16constMethodKlass8allocateEiiiiibP6Thread
   fun:_ZN10oopFactory10new_methodEi11AccessFlagsiiiibP6Thread
   fun:_ZN15ClassFileParser12parse_methodE6Handle18constantPoolHandlebP11AccessFlagsP15typeArrayHandleS5_S5_P6Thread
   fun:_ZN15ClassFileParser13parse_methodsE6Handle18constantPoolHandlebP11AccessFlagsPbPP15objArrayOopDescS7_S7_P6Thread
   fun:_ZN15ClassFileParser14parseClassFileEP6Symbol6HandleS2_11KlassHandleP13GrowableArrayIS2_ER13TempNewSymbolbP6Thread
   fun:_ZN11ClassLoader14load_classfileEP6SymbolP6Thread
   fun:_ZN16SystemDictionary19load_instance_classEP6Symbol6HandleP6Thread
   fun:_ZN16SystemDictionary30resolve_instance_class_or_nullEP6Symbol6HandleS2_P6Thread
}
{
   <insert_a_suppression_name_here>
   Memcheck:Leak
   match-leak-kinds: reachable
   fun:malloc
   fun:_ZN2os6mallocEmtPh
   fun:_ZN9ChunkPool8allocateEmN17AllocFailStrategy13AllocFailEnumE
   fun:_ZN5Arena4growEmN17AllocFailStrategy13AllocFailEnumE
   fun:_ZN10HandleArea15allocate_handleEP7oopDesc
   fun:_ZN15ClassFileParser12parse_methodE6Handle18constantPoolHandlebP11AccessFlagsP15typeArrayHandleS5_S5_P6Thread
   fun:_ZN15ClassFileParser13parse_methodsE6Handle18constantPoolHandlebP11AccessFlagsPbPP15objArrayOopDescS7_S7_P6Thread
   fun:_ZN15ClassFileParser14parseClassFileEP6Symbol6HandleS2_11KlassHandleP13GrowableArrayIS2_ER13TempNewSymbolbP6Thread
   fun:_ZN11ClassLoader14load_classfileEP6SymbolP6Thread
   fun:_ZN16SystemDictionary19load_instance_classEP6Symbol6HandleP6Thread
   fun:_ZN16SystemDictionary30resolve_instance_class_or_nullEP6Symbol6HandleS2_P6Thread
   fun:_ZN16SystemDictionary15resolve_or_nullEP6Symbol6HandleS2_P6Thread
}
{
   <insert_a_suppression_name_here>
   Memcheck:Leak
   match-leak-kinds: reachable
   fun:malloc
   fun:_ZN2os6mallocEmtPh
   fun:_ZN9ChunkPool8allocateEmN17AllocFailStrategy13AllocFailEnumE
   fun:_ZN5Arena4growEmN17AllocFailStrategy13AllocFailEnumE
   fun:_ZN13StackMapFrame26frame_in_exception_handlerEh
   fun:_ZN13ClassVerifier32verify_exception_handler_targetsEtbP13StackMapFrameP13StackMapTableP6Thread
   fun:_ZN13ClassVerifier13verify_methodE12methodHandleP6Thread
   fun:_ZN13ClassVerifier12verify_classEP6Thread
   fun:_ZN8Verifier6verifyE19instanceKlassHandleNS_4ModeEbP6Thread
   fun:_ZN13instanceKlass15link_class_implE19instanceKlassHandlebP6Thread
   fun:_ZN13instanceKlass15link_class_implE19instanceKlassHandlebP6Thread
   fun:JVM_GetClassDeclaredMethods
}
{
   <insert_a_suppression_name_here>
   Memcheck:Leak
   match-leak-kinds: reachable
   fun:malloc
   fun:_ZN2os6mallocEmtPh
   fun:_ZN9ChunkPool8allocateEmN17AllocFailStrategy13AllocFailEnumE
   fun:_ZN5Arena4growEmN17AllocFailStrategy13AllocFailEnumE
   fun:_ZN24DebugInformationRecorderC1EP11OopRecorder
   fun:_ZN7Compile4InitEi
   fun:_ZN7CompileC1EP5ciEnvPFPK8TypeFuncvEPhPKcibbb
   fun:_ZN11OptoRuntime13generate_stubEP5ciEnvPFPK8TypeFuncvEPhPKcibbb
   fun:_ZN11OptoRuntime8generateEP5ciEnv
   fun:_ZN10C2Compiler18initialize_runtimeEv
   fun:_ZN16AbstractCompiler19initialize_runtimesEPFvvEPVi
   fun:_ZN10C2Compiler10initializeEv
}
{
   <insert_a_suppression_name_here>
   Memcheck:Leak
   match-leak-kinds: reachable
   fun:malloc
   fun:_ZN2os6mallocEmtPh
   fun:_ZN9ChunkPool8allocateEmN17AllocFailStrategy13AllocFailEnumE
   fun:_ZN5Arena4growEmN17AllocFailStrategy13AllocFailEnumE
   fun:_ZN9VectorSetC1EP5Arena
   fun:_ZN7CompileC1EP5ciEnvPFPK8TypeFuncvEPhPKcibbb
   fun:_ZN11OptoRuntime13generate_stubEP5ciEnvPFPK8TypeFuncvEPhPKcibbb
   fun:_ZN11OptoRuntime8generateEP5ciEnv
   fun:_ZN10C2Compiler18initialize_runtimeEv
   fun:_ZN16AbstractCompiler19initialize_runtimesEPFvvEPVi
   fun:_ZN10C2Compiler10initializeEv
   fun:_ZN10C2Compiler14compile_methodEP5ciEnvP8ciMethodi
}
{
   <insert_a_suppression_name_here>
   Memcheck:Leak
   match-leak-kinds: reachable
   fun:malloc
   fun:_ZN2os6mallocEmtPh
   fun:_ZN9ChunkPool8allocateEmN17AllocFailStrategy13AllocFailEnumE
   fun:_ZN5Arena4growEmN17AllocFailStrategy13AllocFailEnumE
   fun:_ZNK4Node5cloneEv
   fun:_ZN7Matcher5xformEP4Nodei
   fun:_ZN7Matcher5matchEv
   fun:_ZN7Compile8Code_GenEv
   fun:_ZN7CompileC1EP5ciEnvPFPK8TypeFuncvEPhPKcibbb
   fun:_ZN11OptoRuntime13generate_stubEP5ciEnvPFPK8TypeFuncvEPhPKcibbb
   fun:_ZN11OptoRuntime8generateEP5ciEnv
   fun:_ZN10C2Compiler18initialize_runtimeEv
}
{
   <insert_a_suppression_name_here>
   Memcheck:Leak
   match-leak-kinds: reachable
   fun:malloc
   fun:_ZN2os6mallocEmtPh
   fun:_ZN9ChunkPool8allocateEmN17AllocFailStrategy13AllocFailEnumE
   fun:_ZN5Arena4growEmN17AllocFailStrategy13AllocFailEnumE
   fun:_ZN4NodeC2EPS_S0_S0_
   fun:_ZN8SubINode5IdealEP8PhaseGVNb
   fun:_ZN12PhaseIterGVN13transform_oldEP4Node
   fun:_ZN12PhaseIterGVN8optimizeEv
   fun:_ZN14PhaseIdealLoop18build_and_optimizeEbb
   fun:_ZN7Compile8OptimizeEv
   fun:_ZN7CompileC1EP5ciEnvP10C2CompilerP8ciMethodibb
   fun:_ZN10C2Compiler14compile_methodEP5ciEnvP8ciMethodi
}
{
   <insert_a_suppression_name_here>
   Memcheck:Leak
   match-leak-kinds: reachable
   fun:malloc
   fun:_ZN2os6mallocEmtPh
   fun:_ZN9ChunkPool8allocateEmN17AllocFailStrategy13AllocFailEnumE
   fun:_ZN5Arena4growEmN17AllocFailStrategy13AllocFailEnumE
   fun:_ZN4NodeC2Ej
   fun:_ZN8GraphKit17make_runtime_callEiPK8TypeFuncPhPKcPK7TypePtrP4NodeSA_SA_SA_SA_SA_SA_SA_
   fun:_ZN8GraphKit13uncommon_trapEiP7ciKlassPKcbb
   fun:_ZN8GraphKit18add_predicate_implEN14Deoptimization11DeoptReasonEi
   fun:_ZN5Parse13do_all_blocksEv
   fun:_ZN5ParseC1EP8JVMStateP8ciMethodf
   fun:_ZN14ParseGenerator8generateEP8JVMState
   fun:_ZN7CompileC1EP5ciEnvP10C2CompilerP8ciMethodibb
}
{
   <insert_a_suppression_name_here>
   Memcheck:Leak
   match-leak-kinds: reachable
   fun:malloc
   fun:_ZN2os6mallocEmtPh
   fun:_ZN9ChunkPool8allocateEmN17AllocFailStrategy13AllocFailEnumE
   fun:_ZN5Arena4growEmN17AllocFailStrategy13AllocFailEnumE
   fun:_ZN5Arena8AreallocEPvmmN17AllocFailStrategy13AllocFailEnumE
   fun:_ZN10Node_Array4growEj
   fun:_ZN12PhaseChaitin26post_allocate_copy_removalEv
   fun:_ZN12PhaseChaitin17Register_AllocateEv
   fun:_ZN7Compile8Code_GenEv
   fun:_ZN7CompileC1EP5ciEnvP10C2CompilerP8ciMethodibb
   fun:_ZN10C2Compiler14compile_methodEP5ciEnvP8ciMethodi
   fun:_ZN13CompileBroker25invoke_compiler_on_methodEP11CompileTask
}
{
   <insert_a_suppression_name_here>
   Memcheck:Leak
   match-leak-kinds: reachable
   fun:malloc
   fun:_ZN2os6mallocEmtPh
   fun:_ZN9ChunkPool8allocateEmN17AllocFailStrategy13AllocFailEnumE
   fun:_ZN5Arena4growEmN17AllocFailStrategy13AllocFailEnumE
   fun:_ZN17ClassPathZipEntry11open_streamEPKcP6Thread
   fun:_ZN11ClassLoader14load_classfileEP6SymbolP6Thread
   fun:_ZN16SystemDictionary19load_instance_classEP6Symbol6HandleP6Thread
   fun:_ZN16SystemDictionary30resolve_instance_class_or_nullEP6Symbol6HandleS2_P6Thread
   fun:_ZN16SystemDictionary15resolve_or_nullEP6Symbol6HandleS2_P6Thread
   fun:_ZN16SystemDictionary15resolve_or_failEP6Symbol6HandleS2_bP6Thread
   fun:_ZN19constantPoolOopDesc13klass_at_implE18constantPoolHandleiP6Thread
   fun:_ZN12LinkResolver20resolve_invokestaticER8CallInfo18constantPoolHandleiP6Thread
}
{
   <insert_a_suppression_name_here>
   Memcheck:Leak
   match-leak-kinds: reachable
   fun:malloc
   fun:_ZN2os6mallocEmtPh
   fun:_ZN9ChunkPool8allocateEmN17AllocFailStrategy13AllocFailEnumE
   fun:_ZN5Arena4growEmN17AllocFailStrategy13AllocFailEnumE
   fun:_ZN8NodeHashC1EP5Arenaj
   fun:_ZN7CompileC1EP5ciEnvP10C2CompilerP8ciMethodibb
   fun:_ZN10C2Compiler14compile_methodEP5ciEnvP8ciMethodi
   fun:_ZN13CompileBroker25invoke_compiler_on_methodEP11CompileTask
   fun:_ZN13CompileBroker20compiler_thread_loopEv
   fun:_ZN10JavaThread17thread_main_innerEv
   fun:_ZN10JavaThread3runEv
   fun:_ZL10java_startP6Thread
}
{
   <insert_a_suppression_name_here>
   Memcheck:Leak
   match-leak-kinds: reachable
   fun:malloc
   fun:_ZN2os6mallocEmtPh
   fun:_ZN9ChunkPool8allocateEmN17AllocFailStrategy13AllocFailEnumE
   fun:_ZN5Arena4growEmN17AllocFailStrategy13AllocFailEnumE
   fun:_ZN4DictC1EPFiPKvS1_EPFiS1_EP5Arenai
   fun:_ZN4Type10InitializeEP7Compile
   fun:_ZN7CompileC1EP5ciEnvP10C2CompilerP8ciMethodibb
   fun:_ZN10C2Compiler14compile_methodEP5ciEnvP8ciMethodi
   fun:_ZN13CompileBroker25invoke_compiler_on_methodEP11CompileTask
   fun:_ZN13CompileBroker20compiler_thread_loopEv
   fun:_ZN10JavaThread17thread_main_innerEv
   fun:_ZN10JavaThread3runEv
}
{
   <insert_a_suppression_name_here>
   Memcheck:Leak
   match-leak-kinds: reachable
   fun:malloc
   fun:_ZN2os6mallocEmtPh
   fun:_ZN9ChunkPool8allocateEmN17AllocFailStrategy13AllocFailEnumE
   fun:_ZN5Arena4growEmN17AllocFailStrategy13AllocFailEnumE
   fun:_ZN10InlineTreeC1EP7CompilePKS_P8ciMethodP8JVMStateifi
   fun:_ZN10InlineTree22build_inline_tree_rootEv
   fun:_ZN7CompileC1EP5ciEnvP10C2CompilerP8ciMethodibb
   fun:_ZN10C2Compiler14compile_methodEP5ciEnvP8ciMethodi
   fun:_ZN13CompileBroker25invoke_compiler_on_methodEP11CompileTask
   fun:_ZN13CompileBroker20compiler_thread_loopEv
   fun:_ZN10JavaThread17thread_main_innerEv
   fun:_ZN10JavaThread3runEv
}
{
   <insert_a_suppression_name_here>
   Memcheck:Leak
   match-leak-kinds: reachable
   fun:malloc
   fun:_ZN2os6mallocEmtPh
   fun:_ZN9ChunkPool8allocateEmN17AllocFailStrategy13AllocFailEnumE
   fun:_ZN5Arena4growEmN17AllocFailStrategy13AllocFailEnumE
   fun:_ZN14PhaseIdealLoop10DominatorsEv
   fun:_ZN14PhaseIdealLoop18build_and_optimizeEbb
   fun:_ZN7Compile8OptimizeEv
   fun:_ZN7CompileC1EP5ciEnvP10C2CompilerP8ciMethodibb
   fun:_ZN10C2Compiler14compile_methodEP5ciEnvP8ciMethodi
   fun:_ZN13CompileBroker25invoke_compiler_on_methodEP11CompileTask
   fun:_ZN13CompileBroker20compiler_thread_loopEv
   fun:_ZN10JavaThread17thread_main_innerEv
}
{
   <insert_a_suppression_name_here>
   Memcheck:Leak
   match-leak-kinds: reachable
   fun:malloc
   fun:_ZN2os6mallocEmtPh
   fun:_ZN9ChunkPool8allocateEmN17AllocFailStrategy13AllocFailEnumE
   fun:_ZN5Arena4growEmN17AllocFailStrategy13AllocFailEnumE
   fun:_ZN7ConNode4makeEP7CompilePK4Type
   fun:_ZN11PhaseValues16uncached_makeconEPK4Type
   fun:_ZN14PhaseTransform7makeconEPK4Type
   fun:_ZN7MulNode5IdealEP8PhaseGVNb
   fun:_ZN8AndINode5IdealEP8PhaseGVNb
   fun:_ZN8PhaseGVN20transform_no_reclaimEP4Node
   fun:_ZN5Parse15do_one_bytecodeEv
   fun:_ZN5Parse12do_one_blockEv
}
{
   <insert_a_suppression_name_here>
   Memcheck:Leak
   match-leak-kinds: reachable
   fun:malloc
   fun:_ZN2os6mallocEmtPh
   fun:_ZN9ChunkPool8allocateEmN17AllocFailStrategy13AllocFailEnumE
   fun:_ZN5Arena4growEmN17AllocFailStrategy13AllocFailEnumE
   fun:_ZNK13instanceKlass6itableEv
   fun:_ZN18instanceKlassKlass19oop_adjust_pointersEP7oopDesc
   fun:_ZN24CompactibleFreeListSpace15adjust_pointersEv
   fun:_ZN10Generation15adjust_pointersEv
   fun:_ZN12GenMarkSweep17mark_sweep_phase3Ei
   fun:_ZN12GenMarkSweep19invoke_at_safepointEiP18ReferenceProcessorb
   fun:_ZN12CMSCollector18do_compaction_workEb
   fun:_ZN12CMSCollector27acquire_control_and_collectEbb
}
{
   <insert_a_suppression_name_here>
   Memcheck:Leak
   match-leak-kinds: reachable
   fun:malloc
   fun:_ZN2os6mallocEmtPh
   fun:_ZN9ChunkPool8allocateEmN17AllocFailStrategy13AllocFailEnumE
   fun:_ZN5Arena4growEmN17AllocFailStrategy13AllocFailEnumE
   fun:_ZN4NodeC2EPS_
   fun:_ZN5Parse5do_ifEN8BoolTest4maskEP4Node
   fun:_ZN5Parse15do_one_bytecodeEv
   fun:_ZN5Parse12do_one_blockEv
   fun:_ZN5Parse13do_all_blocksEv
   fun:_ZN5ParseC1EP8JVMStateP8ciMethodf
   fun:_ZN14ParseGenerator8generateEP8JVMState
   fun:_ZN7CompileC1EP5ciEnvP10C2CompilerP8ciMethodibb
}
{
   <insert_a_suppression_name_here>
   Memcheck:Leak
   match-leak-kinds: reachable
   fun:malloc
   fun:_ZN2os6mallocEmtPh
   fun:_ZN9ChunkPool8allocateEmN17AllocFailStrategy13AllocFailEnumE
   fun:_ZN5Arena4growEmN17AllocFailStrategy13AllocFailEnumE
   fun:_ZN5Arena8AreallocEPvmmN17AllocFailStrategy13AllocFailEnumE
   fun:_ZN10Node_Array4growEj
   fun:_ZN14PhaseIdealLoop10clone_loopEP13IdealLoopTreeR9Node_ListiP4Node
   fun:_ZN14PhaseIdealLoop9do_unrollEP13IdealLoopTreeR9Node_Listb
   fun:_ZN13IdealLoopTree20iteration_split_implEP14PhaseIdealLoopR9Node_List
   fun:_ZN13IdealLoopTree15iteration_splitEP14PhaseIdealLoopR9Node_List
   fun:_ZN13IdealLoopTree15iteration_splitEP14PhaseIdealLoopR9Node_List
   fun:_ZN14PhaseIdealLoop18build_and_optimizeEbb
}
{
   <insert_a_suppression_name_here>
   Memcheck:Leak
   match-leak-kinds: reachable
   fun:malloc
   fun:_ZN2os6mallocEmtPh
   fun:_ZN9ChunkPool8allocateEmN17AllocFailStrategy13AllocFailEnumE
   fun:_ZN5Arena4growEmN17AllocFailStrategy13AllocFailEnumE
   fun:_ZN4NodeC1Ej
   fun:_ZN12PhaseIterGVN12subsume_nodeEP4NodeS1_
   fun:_ZN12PhaseIterGVN13transform_oldEP4Node
   fun:_ZN12PhaseIterGVN8optimizeEv
   fun:_ZN14PhaseIdealLoop18build_and_optimizeEbb
   fun:_ZN7Compile8OptimizeEv
   fun:_ZN7CompileC1EP5ciEnvP10C2CompilerP8ciMethodibb
   fun:_ZN10C2Compiler14compile_methodEP5ciEnvP8ciMethodi
}
{
   <insert_a_suppression_name_here>
   Memcheck:Leak
   match-leak-kinds: reachable
   fun:malloc
   fun:_ZN2os6mallocEmtPh
   fun:_ZN9ChunkPool8allocateEmN17AllocFailStrategy13AllocFailEnumE
   fun:_ZN5Arena4growEmN17AllocFailStrategy13AllocFailEnumE
   fun:_ZNK4Node5cloneEv
   fun:_ZN14PhaseIdealLoop10clone_loopEP13IdealLoopTreeR9Node_ListiP4Node
   fun:_ZN14PhaseIdealLoop9do_unrollEP13IdealLoopTreeR9Node_Listb
   fun:_ZN13IdealLoopTree20iteration_split_implEP14PhaseIdealLoopR9Node_List
   fun:_ZN13IdealLoopTree15iteration_splitEP14PhaseIdealLoopR9Node_List
   fun:_ZN13IdealLoopTree15iteration_splitEP14PhaseIdealLoopR9Node_List
   fun:_ZN13IdealLoopTree15iteration_splitEP14PhaseIdealLoopR9Node_List
   fun:_ZN13IdealLoopTree15iteration_splitEP14PhaseIdealLoopR9Node_List
}
{
   <insert_a_suppression_name_here>
   Memcheck:Leak
   match-leak-kinds: possible
   fun:malloc
   fun:_ZN2os6mallocEmtPh
   fun:_ZN9ChunkPool8allocateEmN17AllocFailStrategy13AllocFailEnumE
   fun:_ZN5Arena4growEmN17AllocFailStrategy13AllocFailEnumE
   fun:_ZN15typeArrayHandleC1EP6ThreadP16typeArrayOopDesc
   fun:_ZN15ClassFileParser12parse_methodE6Handle18constantPoolHandlebP11AccessFlagsP15typeArrayHandleS5_S5_P6Thread
   fun:_ZN15ClassFileParser13parse_methodsE6Handle18constantPoolHandlebP11AccessFlagsPbPP15objArrayOopDescS7_S7_P6Thread
   fun:_ZN15ClassFileParser14parseClassFileEP6Symbol6HandleS2_11KlassHandleP13GrowableArrayIS2_ER13TempNewSymbolbP6Thread
   fun:_ZN11ClassLoader14load_classfileEP6SymbolP6Thread
   fun:_ZN16SystemDictionary19load_instance_classEP6Symbol6HandleP6Thread
   fun:_ZN16SystemDictionary30resolve_instance_class_or_nullEP6Symbol6HandleS2_P6Thread
   fun:_ZN16SystemDictionary15resolve_or_nullEP6Symbol6HandleS2_P6Thread
}
{
   <insert_a_suppression_name_here>
   Memcheck:Leak
   match-leak-kinds: possible
   fun:malloc
   fun:_ZN2os6mallocEmtPh
   fun:_ZN9ChunkPool8allocateEmN17AllocFailStrategy13AllocFailEnumE
   fun:_ZN5Arena4growEmN17AllocFailStrategy13AllocFailEnumE
   fun:_ZN15ciInstanceKlass29compute_nonstatic_fields_implEP13GrowableArrayIP7ciFieldE
   fun:_ZN15ciInstanceKlass24compute_nonstatic_fieldsEv
   fun:_ZN15ciObjectFactory19init_shared_objectsEv
   fun:_ZN15ciObjectFactory10initializeEv
   fun:_ZN13CompileBroker20compiler_thread_loopEv
   fun:_ZN10JavaThread17thread_main_innerEv
   fun:_ZN10JavaThread3runEv
   fun:_ZL10java_startP6Thread
}
{
   <insert_a_suppression_name_here>
   Memcheck:Leak
   match-leak-kinds: possible
   fun:malloc
   fun:_ZN2os6mallocEmtPh
   fun:_ZN9ChunkPool8allocateEmN17AllocFailStrategy13AllocFailEnumE
   fun:_ZN5Arena4growEmN17AllocFailStrategy13AllocFailEnumE
   fun:_ZN14objArrayHandleC1EP6ThreadP15objArrayOopDesc
   fun:_ZN15ClassFileParser13parse_methodsE6Handle18constantPoolHandlebP11AccessFlagsPbPP15objArrayOopDescS7_S7_P6Thread
   fun:_ZN15ClassFileParser14parseClassFileEP6Symbol6HandleS2_11KlassHandleP13GrowableArrayIS2_ER13TempNewSymbolbP6Thread
   fun:_ZN11ClassLoader14load_classfileEP6SymbolP6Thread
   fun:_ZN16SystemDictionary19load_instance_classEP6Symbol6HandleP6Thread
   fun:_ZN16SystemDictionary30resolve_instance_class_or_nullEP6Symbol6HandleS2_P6Thread
   fun:_ZN16SystemDictionary15resolve_or_nullEP6Symbol6HandleS2_P6Thread
   fun:JVM_FindClassFromBootLoader
}
{
   <insert_a_suppression_name_here>
   Memcheck:Leak
   match-leak-kinds: reachable
   fun:malloc
   fun:_ZN2os6mallocEmtPh
   fun:_Z12AllocateHeapmtPhN17AllocFailStrategy13AllocFailEnumE
   fun:_ZN9HashtableIP6SymbolLt256EE9new_entryEjS1_
   fun:_ZN16PlaceholderTable9add_entryEijP6Symbol6HandlebS1_
   fun:_ZN16PlaceholderTable12find_and_addEijP6Symbol6HandleNS_15classloadActionES1_P6Thread
   fun:_ZN16SystemDictionary30resolve_instance_class_or_nullEP6Symbol6HandleS2_P6Thread
   fun:_ZN16SystemDictionary15resolve_or_nullEP6Symbol6HandleS2_P6Thread
   fun:_ZN16SystemDictionary28initialize_preloaded_classesEP6Thread
   fun:_ZN8Universe7genesisEP6Thread
   fun:_Z14universe2_initv
   fun:_Z12init_globalsv
}
{
   <insert_a_suppression_name_here>
   Memcheck:Leak
   match-leak-kinds: reachable
   fun:malloc
   fun:updatewindow
   fun:inflate
   fun:Java_java_util_zip_Inflater_inflateBytes
   obj:*
   obj:*
   obj:*
   obj:*
   obj:*
   obj:*
   obj:*
   obj:*
}
{
   <insert_a_suppression_name_here>
   Memcheck:Leak
   match-leak-kinds: reachable
   fun:malloc
   fun:_ZN2os6mallocEmtPh
   fun:_Z12AllocateHeapmtPhN17AllocFailStrategy13AllocFailEnumE
   fun:_ZN9HashtableIP6SymbolLt2304EE9new_entryEjS1_
   fun:_ZN11SymbolTable9basic_addE6Handle18constantPoolHandleiPPKcPiS5_PjP6Thread
   fun:_ZN11SymbolTable3addE6Handle18constantPoolHandleiPPKcPiS5_PjP6Thread
   fun:_ZN15ClassFileParser27parse_constant_pool_entriesE6Handle18constantPoolHandleiP6Thread
   fun:_ZN15ClassFileParser19parse_constant_poolE6HandleP6Thread
   fun:_ZN15ClassFileParser14parseClassFileEP6Symbol6HandleS2_11KlassHandleP13GrowableArrayIS2_ER13TempNewSymbolbP6Thread
   fun:_ZN11ClassLoader14load_classfileEP6SymbolP6Thread
   fun:_ZN16SystemDictionary19load_instance_classEP6Symbol6HandleP6Thread
   fun:_ZN16SystemDictionary30resolve_instance_class_or_nullEP6Symbol6HandleS2_P6Thread
}
{
   <insert_a_suppression_name_here>
   Memcheck:Leak
   match-leak-kinds: possible
   fun:malloc
   fun:_ZN2os6mallocEmtPh
   fun:_Z12AllocateHeapmtPhN17AllocFailStrategy13AllocFailEnumE
   fun:_ZN9HashtableIP6SymbolLt2304EE9new_entryEjS1_
   fun:_ZN11SymbolTable9basic_addE6Handle18constantPoolHandleiPPKcPiS5_PjP6Thread
   fun:_ZN11SymbolTable3addE6Handle18constantPoolHandleiPPKcPiS5_PjP6Thread
   fun:_ZN15ClassFileParser27parse_constant_pool_entriesE6Handle18constantPoolHandleiP6Thread
   fun:_ZN15ClassFileParser19parse_constant_poolE6HandleP6Thread
   fun:_ZN15ClassFileParser14parseClassFileEP6Symbol6HandleS2_11KlassHandleP13GrowableArrayIS2_ER13TempNewSymbolbP6Thread
   fun:_ZN11ClassLoader14load_classfileEP6SymbolP6Thread
   fun:_ZN16SystemDictionary19load_instance_classEP6Symbol6HandleP6Thread
   fun:_ZN16SystemDictionary30resolve_instance_class_or_nullEP6Symbol6HandleS2_P6Thread
}
{
   <insert_a_suppression_name_here>
   Memcheck:Leak
   match-leak-kinds: reachable
   fun:malloc
   obj:/usr/lib/x86_64-linux-gnu/libstdc++.so.6.0.25
   fun:call_init
   fun:_dl_init
   fun:dl_open_worker
   fun:_dl_catch_exception
   fun:_dl_open
   fun:dlopen_doit
   fun:_dl_catch_exception
   fun:_dl_catch_error
   fun:_dlerror_run
   fun:dlopen@@GLIBC_2.2.5
   fun:_ZN2os8dll_loadEPKcPci
}
{
   <insert_a_suppression_name_here>
   Memcheck:Leak
   match-leak-kinds: reachable
   fun:malloc
   fun:_ZN2os6mallocEmtPh
   fun:_Z12AllocateHeapmtPhN17AllocFailStrategy13AllocFailEnumE
   fun:_ZN9HashtableIP6SymbolLt2304EE9new_entryEjS1_
   fun:_ZN11SymbolTable9basic_addE6Handle18constantPoolHandleiPPKcPiS5_PjP6Thread
   fun:_ZN11SymbolTable3addE6Handle18constantPoolHandleiPPKcPiS5_PjP6Thread
   fun:_ZN15ClassFileParser27parse_constant_pool_entriesE6Handle18constantPoolHandleiP6Thread
   fun:_ZN15ClassFileParser19parse_constant_poolE6HandleP6Thread
   fun:_ZN15ClassFileParser14parseClassFileEP6Symbol6HandleS2_11KlassHandleP13GrowableArrayIS2_ER13TempNewSymbolbP6Thread
   fun:_ZN16SystemDictionary19resolve_from_streamEP6Symbol6HandleS2_P15ClassFileStreambP6Thread
   fun:_ZL23jvm_define_class_commonP7JNIEnv_PKcP8_jobjectPKaiS4_S2_hP6Thread
   fun:JVM_DefineClassWithSource
}
{
   <insert_a_suppression_name_here>
   Memcheck:Leak
   match-leak-kinds: reachable
   fun:calloc
   fun:readCEN
   fun:ZIP_Put_In_Cache0
   fun:Java_java_util_zip_ZipFile_open
   obj:*
   obj:*
   obj:*
   obj:*
   obj:*
   obj:*
   obj:*
   obj:*
}
{
   <insert_a_suppression_name_here>
   Memcheck:Leak
   match-leak-kinds: reachable
   fun:malloc
   fun:_ZN2os6mallocEmtPh
   fun:_Z13universe_initv
   fun:_Z12init_globalsv
   fun:_ZN7Threads9create_vmEP14JavaVMInitArgsPb
   fun:JNI_CreateJavaVM
   fun:JavaMain
   fun:start_thread
   fun:clone
}
{
   <insert_a_suppression_name_here>
   Memcheck:Leak
   match-leak-kinds: reachable
   fun:calloc
   fun:init
   obj:/usr/java/jdk1.7.0_80/jre/lib/amd64/libnet.so
   obj:/usr/java/jdk1.7.0_80/jre/lib/amd64/libnet.so
   obj:/usr/java/jdk1.7.0_80/jre/lib/amd64/libnio.so
   fun:call_init
   fun:_dl_init
   fun:dl_open_worker
   fun:_dl_catch_exception
   fun:_dl_open
   fun:dlopen_doit
   fun:_dl_catch_exception
   fun:_dl_catch_error
}
{
   <insert_a_suppression_name_here>
   Memcheck:Leak
   match-leak-kinds: reachable
   fun:malloc
   fun:_ZN2os6mallocEmtPh
   fun:_ZN5ChunknwEmN17AllocFailStrategy13AllocFailEnumEm
   fun:_ZN5ArenaC1Em
   fun:_ZN11SymbolTable18initialize_symbolsEi
   fun:_Z13universe_initv
   fun:_Z12init_globalsv
   fun:_ZN7Threads9create_vmEP14JavaVMInitArgsPb
   fun:JNI_CreateJavaVM
   fun:JavaMain
   fun:start_thread
   fun:clone
}
{
   <insert_a_suppression_name_here>
   Memcheck:Leak
   match-leak-kinds: reachable
   fun:malloc
   fun:_ZN2os6mallocEmtPh
   fun:_Z12AllocateHeapmtPhN17AllocFailStrategy13AllocFailEnumE
   fun:_ZN14ArrayAllocatorIP7oopDescLt1280EE8allocateEm
   fun:_ZN16ParNewGenerationC1E13ReservedSpacemi
   fun:_ZN14GenerationSpec4initE13ReservedSpaceiP9GenRemSet
   fun:_ZN16GenCollectedHeap10initializeEv
   fun:_ZN8Universe15initialize_heapEv
   fun:_Z13universe_initv
   fun:_Z12init_globalsv
   fun:_ZN7Threads9create_vmEP14JavaVMInitArgsPb
   fun:JNI_CreateJavaVM
}
{
   <insert_a_suppression_name_here>
   Memcheck:Leak
   match-leak-kinds: reachable
   fun:malloc
   fun:_ZN2os6mallocEmtPh
   fun:_Z12AllocateHeapmtPhN17AllocFailStrategy13AllocFailEnumE
   fun:_ZN14ArrayAllocatorIP7oopDescLt1280EE8allocateEm
   fun:_ZN12CMSCollectorC1EP29ConcurrentMarkSweepGenerationS1_P11CardTableRSP25ConcurrentMarkSweepPolicy
   fun:_ZN16GenCollectedHeap20create_cms_collectorEv
   fun:_ZN16GenCollectedHeap10initializeEv
   fun:_ZN8Universe15initialize_heapEv
   fun:_Z13universe_initv
   fun:_Z12init_globalsv
   fun:_ZN7Threads9create_vmEP14JavaVMInitArgsPb
   fun:JNI_CreateJavaVM
}
